GAS LISTING /var/folders/7l/9pmsqbq54pd4f14gcz60xhbh0000gn/T//ccPQH7Rh.s 			page 1


   1               		.file	"bmp280.c"
   2               	__SP_H__ = 0x3e
   3               	__SP_L__ = 0x3d
   4               	__SREG__ = 0x3f
   5               	__tmp_reg__ = 0
   6               	__zero_reg__ = 1
   7               		.text
   8               	.Ltext0:
   9               		.cfi_sections	.debug_frame
  10               	.global	compute_temp
  11               		.type	compute_temp, @function
  12               	compute_temp:
  13               	.LFB10:
  14               		.file 1 "bmp280.c"
   1:bmp280.c      **** /*
   2:bmp280.c      ****  * bmp280.c
   3:bmp280.c      ****  * Source file for bmp280 driver.
   4:bmp280.c      ****  * Datasheet available at https://cdn-shop.adafruit.com/datasheets/BST-BMP280-DS001-11.pdf
   5:bmp280.c      ****  *
   6:bmp280.c      ****  * Author: Jonny Dyer
   7:bmp280.c      ****  * Date: 4/21/18
   8:bmp280.c      ****  */
   9:bmp280.c      **** 
  10:bmp280.c      **** #include <stdint.h>
  11:bmp280.c      **** #include <avrlib/i2c.h>
  12:bmp280.c      **** #include <avr/delay.h>
  13:bmp280.c      **** #include "bmp280.h"
  14:bmp280.c      **** #include "i2cconf.h"
  15:bmp280.c      **** 
  16:bmp280.c      **** uint8_t g_dev_addr;
  17:bmp280.c      **** int32_t g_tfine;
  18:bmp280.c      **** struct compensation_struct{
  19:bmp280.c      ****     uint16_t dig_T1;
  20:bmp280.c      ****     int16_t dig_T2;
  21:bmp280.c      ****     int16_t dig_T3;
  22:bmp280.c      **** 
  23:bmp280.c      ****     uint16_t dig_P1;
  24:bmp280.c      ****     int16_t dig_P2;
  25:bmp280.c      ****     int16_t dig_P3;
  26:bmp280.c      ****     int16_t dig_P4;
  27:bmp280.c      ****     int16_t dig_P5;
  28:bmp280.c      ****     int16_t dig_P6;
  29:bmp280.c      ****     int16_t dig_P7;
  30:bmp280.c      ****     int16_t dig_P8;
  31:bmp280.c      ****     int16_t dig_P9;
  32:bmp280.c      **** } g_comp;
  33:bmp280.c      **** 
  34:bmp280.c      **** int32_t read_20bit_reg(uint8_t start_addr);
  35:bmp280.c      **** int32_t compute_temp(int32_t adc_T);
  36:bmp280.c      **** int32_t compute_pressure(int32_t adc_P);
  37:bmp280.c      **** 
  38:bmp280.c      **** /* bmp280_init
  39:bmp280.c      ****  * Initializes device at slave address dev_addr
  40:bmp280.c      ****  */
  41:bmp280.c      **** uint8_t bmp280_init(void)
  42:bmp280.c      **** {
  43:bmp280.c      ****     int8_t retval = I2C_OK;
GAS LISTING /var/folders/7l/9pmsqbq54pd4f14gcz60xhbh0000gn/T//ccPQH7Rh.s 			page 2


  44:bmp280.c      ****     g_dev_addr = BMP280_ADDR<<1;
  45:bmp280.c      ****     
  46:bmp280.c      ****     retval = bmp280_write_reg(BMP280_REG_RESET, BMP280_RESET);
  47:bmp280.c      ****     if(retval != I2C_OK) return retval;
  48:bmp280.c      **** 
  49:bmp280.c      ****     // Seem to need about 10ms to get device to reset
  50:bmp280.c      ****     _delay_ms(10);
  51:bmp280.c      ****     
  52:bmp280.c      ****     retval = bmp280_load_compensation();
  53:bmp280.c      ****     if(retval != I2C_OK) return retval;
  54:bmp280.c      **** 
  55:bmp280.c      ****     retval = bmp280_read_regs(BMP280_REG_ID, 1);
  56:bmp280.c      ****     if(retval != I2C_OK) return retval;
  57:bmp280.c      **** 
  58:bmp280.c      ****     retval = bmp280_write_reg(BMP280_REG_CONFIG, 
  59:bmp280.c      ****                 ((BMP280_ODR_0_5_MS<<BMP280_STANDBY_DURN_POS) & BMP280_STANDBY_DURN_MASK) | ((BMP28
  60:bmp280.c      ****     if(retval != I2C_OK) return retval;
  61:bmp280.c      ****     
  62:bmp280.c      ****     retval = bmp280_write_reg(BMP280_REG_CTRL_MEAS,
  63:bmp280.c      ****             ((BMP280_OS_2<<BMP280_OS_TEMP_POS) & BMP280_OS_TEMP_MASK) |
  64:bmp280.c      ****             ((BMP280_OS_16<<BMP280_OS_PRES_POS) & BMP280_OS_PRES_MASK) | 
  65:bmp280.c      ****             ((BMP280_NORMAL_MODE<<BMP280_POWER_MODE_POS) & BMP280_POWER_MODE_MASK));
  66:bmp280.c      ****     if(retval != I2C_OK) return retval;
  67:bmp280.c      **** 
  68:bmp280.c      ****     return g_buff[0];
  69:bmp280.c      **** }
  70:bmp280.c      **** 
  71:bmp280.c      **** uint8_t bmp280_busy(void){
  72:bmp280.c      ****     bmp280_read_regs(BMP280_REG_STATUS, 1);
  73:bmp280.c      ****     return (g_buff[0] != 0);
  74:bmp280.c      **** }
  75:bmp280.c      **** 
  76:bmp280.c      **** /* bmp280_load_compensation
  77:bmp280.c      ****  * This loads all the compensation coefficients from the device.
  78:bmp280.c      ****  * Probably a more elegant way to do this but this closely mirrors
  79:bmp280.c      ****  * datasheet so I think readibility is better here.
  80:bmp280.c      ****  */
  81:bmp280.c      **** int8_t bmp280_load_compensation(void){
  82:bmp280.c      ****     int8_t retval = I2C_OK;
  83:bmp280.c      **** 
  84:bmp280.c      ****     retval = bmp280_read_regs(BMP280_REG_DIG_T1, 2);
  85:bmp280.c      ****     g_comp.dig_T1 = (uint16_t)((uint16_t)g_buff[0] | (g_buff[1]<<8));
  86:bmp280.c      **** 
  87:bmp280.c      ****     retval = bmp280_read_regs(BMP280_REG_DIG_T2, 2);
  88:bmp280.c      ****     g_comp.dig_T2 = (int16_t)((uint16_t)g_buff[0] | (g_buff[1]<<8));
  89:bmp280.c      **** 
  90:bmp280.c      ****     retval = bmp280_read_regs(BMP280_REG_DIG_T3, 2);
  91:bmp280.c      ****     g_comp.dig_T3 = (int16_t)((uint16_t)g_buff[0] | (g_buff[1]<<8));
  92:bmp280.c      **** 
  93:bmp280.c      ****     retval = bmp280_read_regs(BMP280_REG_DIG_P1, 2);
  94:bmp280.c      ****     g_comp.dig_P1 = (uint16_t)((uint16_t)g_buff[0] | (g_buff[1]<<8));
  95:bmp280.c      **** 
  96:bmp280.c      ****     retval = bmp280_read_regs(BMP280_REG_DIG_P2, 2);
  97:bmp280.c      ****     g_comp.dig_P2 = (int16_t)((uint16_t)g_buff[0] | (g_buff[1]<<8));
  98:bmp280.c      **** 
  99:bmp280.c      ****     retval = bmp280_read_regs(BMP280_REG_DIG_P3, 2);
 100:bmp280.c      ****     g_comp.dig_P3 = (int16_t)((uint16_t)g_buff[0] | (g_buff[1]<<8));
GAS LISTING /var/folders/7l/9pmsqbq54pd4f14gcz60xhbh0000gn/T//ccPQH7Rh.s 			page 3


 101:bmp280.c      **** 
 102:bmp280.c      ****     retval = bmp280_read_regs(BMP280_REG_DIG_P4, 2);
 103:bmp280.c      ****     g_comp.dig_P4 = (int16_t)((uint16_t)g_buff[0] | (g_buff[1]<<8));
 104:bmp280.c      **** 
 105:bmp280.c      ****     retval = bmp280_read_regs(BMP280_REG_DIG_P5, 2);
 106:bmp280.c      ****     g_comp.dig_P5 = (int16_t)((uint16_t)g_buff[0] | (g_buff[1]<<8));
 107:bmp280.c      **** 
 108:bmp280.c      ****     retval = bmp280_read_regs(BMP280_REG_DIG_P6, 2);
 109:bmp280.c      ****     g_comp.dig_P6 = (int16_t)((uint16_t)g_buff[0] | (g_buff[1]<<8));
 110:bmp280.c      **** 
 111:bmp280.c      ****     retval = bmp280_read_regs(BMP280_REG_DIG_P7, 2);
 112:bmp280.c      ****     g_comp.dig_P7 = (int16_t)((uint16_t)g_buff[0] | (g_buff[1]<<8));
 113:bmp280.c      **** 
 114:bmp280.c      ****     retval = bmp280_read_regs(BMP280_REG_DIG_P8, 2);
 115:bmp280.c      ****     g_comp.dig_P8 = (int16_t)((uint16_t)g_buff[0] | (g_buff[1]<<8));
 116:bmp280.c      **** 
 117:bmp280.c      ****     retval = bmp280_read_regs(BMP280_REG_DIG_P9, 2);
 118:bmp280.c      ****     g_comp.dig_P9 = (int16_t)((uint16_t)g_buff[0] | (g_buff[1]<<8));
 119:bmp280.c      ****     return retval;
 120:bmp280.c      **** }
 121:bmp280.c      **** 
 122:bmp280.c      **** int32_t read_20bit_reg(uint8_t start_addr){
 123:bmp280.c      ****     bmp280_read_regs(start_addr, 3);
 124:bmp280.c      ****     return (int32_t)(((uint32_t)g_buff[0]<<12) | (g_buff[1]<<4) | (g_buff[2] >>4));
 125:bmp280.c      **** }
 126:bmp280.c      **** 
 127:bmp280.c      **** int32_t compute_temp(int32_t adc_T){
  15               		.loc 1 127 0
  16               		.cfi_startproc
  17               	.LVL0:
  18 0000 8F92      		push r8
  19               	.LCFI0:
  20               		.cfi_def_cfa_offset 3
  21               		.cfi_offset 8, -2
  22 0002 9F92      		push r9
  23               	.LCFI1:
  24               		.cfi_def_cfa_offset 4
  25               		.cfi_offset 9, -3
  26 0004 AF92      		push r10
  27               	.LCFI2:
  28               		.cfi_def_cfa_offset 5
  29               		.cfi_offset 10, -4
  30 0006 BF92      		push r11
  31               	.LCFI3:
  32               		.cfi_def_cfa_offset 6
  33               		.cfi_offset 11, -5
  34 0008 CF92      		push r12
  35               	.LCFI4:
  36               		.cfi_def_cfa_offset 7
  37               		.cfi_offset 12, -6
  38 000a DF92      		push r13
  39               	.LCFI5:
  40               		.cfi_def_cfa_offset 8
  41               		.cfi_offset 13, -7
  42 000c EF92      		push r14
  43               	.LCFI6:
  44               		.cfi_def_cfa_offset 9
GAS LISTING /var/folders/7l/9pmsqbq54pd4f14gcz60xhbh0000gn/T//ccPQH7Rh.s 			page 4


  45               		.cfi_offset 14, -8
  46 000e FF92      		push r15
  47               	.LCFI7:
  48               		.cfi_def_cfa_offset 10
  49               		.cfi_offset 15, -9
  50               	/* prologue: function */
  51               	/* frame size = 0 */
  52               	/* stack size = 8 */
  53               	.L__stack_usage = 8
 128:bmp280.c      ****     int32_t var1, var2;
 129:bmp280.c      **** 
 130:bmp280.c      ****     var1 = ((((adc_T >> 3) - ((int32_t)g_comp.dig_T1 << 1)))
  54               		.loc 1 130 0
  55 0010 2091 0000 		lds r18,g_comp
  56 0014 3091 0000 		lds r19,g_comp+1
  57 0018 6901      		movw r12,r18
  58 001a E12C      		mov r14,__zero_reg__
  59 001c F12C      		mov r15,__zero_reg__
  60               	.LVL1:
 131:bmp280.c      **** 		* ((int32_t)g_comp.dig_T2)) >> 11;
 132:bmp280.c      ****     var2 = (((((adc_T >> 4) - ((int32_t)g_comp.dig_T1))
 133:bmp280.c      **** 		* ((adc_T >> 4) - ((int32_t)g_comp.dig_T1))) >> 12)
  61               		.loc 1 133 0
  62 001e 4B01      		movw r8,r22
  63 0020 5C01      		movw r10,r24
  64 0022 24E0      		ldi r18,4
  65               		1:
  66 0024 B594      		asr r11
  67 0026 A794      		ror r10
  68 0028 9794      		ror r9
  69 002a 8794      		ror r8
  70 002c 2A95      		dec r18
  71 002e 01F4      		brne 1b
  72 0030 8C18      		sub r8,r12
  73 0032 9D08      		sbc r9,r13
  74 0034 AE08      		sbc r10,r14
  75 0036 BF08      		sbc r11,r15
  76               	.LVL2:
 130:bmp280.c      ****     var1 = ((((adc_T >> 3) - ((int32_t)g_comp.dig_T1 << 1)))
  77               		.loc 1 130 0
  78 0038 9B01      		movw r18,r22
  79 003a AC01      		movw r20,r24
  80 003c 63E0      		ldi r22,3
  81               		1:
  82 003e 5595      		asr r21
  83 0040 4795      		ror r20
  84 0042 3795      		ror r19
  85 0044 2795      		ror r18
  86 0046 6A95      		dec r22
  87 0048 01F4      		brne 1b
  88               	.LVL3:
  89 004a D701      		movw r26,r14
  90 004c C601      		movw r24,r12
  91 004e 880F      		lsl r24
  92 0050 991F      		rol r25
  93 0052 AA1F      		rol r26
  94 0054 BB1F      		rol r27
GAS LISTING /var/folders/7l/9pmsqbq54pd4f14gcz60xhbh0000gn/T//ccPQH7Rh.s 			page 5


  95 0056 281B      		sub r18,r24
  96 0058 390B      		sbc r19,r25
  97 005a 4A0B      		sbc r20,r26
  98 005c 5B0B      		sbc r21,r27
 131:bmp280.c      **** 		* ((int32_t)g_comp.dig_T2)) >> 11;
  99               		.loc 1 131 0
 100 005e A091 0000 		lds r26,g_comp+2
 101 0062 B091 0000 		lds r27,g_comp+2+1
 102 0066 0E94 0000 		call __mulshisi3
 103 006a 6B01      		movw r12,r22
 104 006c 7C01      		movw r14,r24
 105               	.LVL4:
 130:bmp280.c      ****     var1 = ((((adc_T >> 3) - ((int32_t)g_comp.dig_T1 << 1)))
 106               		.loc 1 130 0
 107 006e EBE0      		ldi r30,11
 108               		1:
 109 0070 F594      		asr r15
 110 0072 E794      		ror r14
 111 0074 D794      		ror r13
 112 0076 C794      		ror r12
 113 0078 EA95      		dec r30
 114 007a 01F4      		brne 1b
 115               	.LVL5:
 116               		.loc 1 133 0
 117 007c A501      		movw r20,r10
 118 007e 9401      		movw r18,r8
 119 0080 C501      		movw r24,r10
 120 0082 B401      		movw r22,r8
 121 0084 0E94 0000 		call __mulsi3
 122 0088 9B01      		movw r18,r22
 123 008a AC01      		movw r20,r24
 124 008c FCE0      		ldi r31,12
 125               		1:
 126 008e 5595      		asr r21
 127 0090 4795      		ror r20
 128 0092 3795      		ror r19
 129 0094 2795      		ror r18
 130 0096 FA95      		dec r31
 131 0098 01F4      		brne 1b
 134:bmp280.c      **** 		* ((int32_t)g_comp.dig_T3)) >> 14;
 132               		.loc 1 134 0
 133 009a A091 0000 		lds r26,g_comp+4
 134 009e B091 0000 		lds r27,g_comp+4+1
 135 00a2 0E94 0000 		call __mulshisi3
 132:bmp280.c      ****     var2 = (((((adc_T >> 4) - ((int32_t)g_comp.dig_T1))
 136               		.loc 1 132 0
 137 00a6 AEE0      		ldi r26,14
 138               		1:
 139 00a8 9595      		asr r25
 140 00aa 8795      		ror r24
 141 00ac 7795      		ror r23
 142 00ae 6795      		ror r22
 143 00b0 AA95      		dec r26
 144 00b2 01F4      		brne 1b
 145               	.LVL6:
 135:bmp280.c      **** 
 136:bmp280.c      ****     g_tfine = var1 + var2;
GAS LISTING /var/folders/7l/9pmsqbq54pd4f14gcz60xhbh0000gn/T//ccPQH7Rh.s 			page 6


 146               		.loc 1 136 0
 147 00b4 C60E      		add r12,r22
 148 00b6 D71E      		adc r13,r23
 149 00b8 E81E      		adc r14,r24
 150 00ba F91E      		adc r15,r25
 151               	.LVL7:
 152 00bc C092 0000 		sts g_tfine,r12
 153 00c0 D092 0000 		sts g_tfine+1,r13
 154 00c4 E092 0000 		sts g_tfine+2,r14
 155 00c8 F092 0000 		sts g_tfine+3,r15
 137:bmp280.c      ****     return (g_tfine * 5 + 128) >> 8;
 156               		.loc 1 137 0
 157 00cc A5E0      		ldi r26,lo8(5)
 158 00ce B0E0      		ldi r27,0
 159 00d0 A701      		movw r20,r14
 160 00d2 9601      		movw r18,r12
 161 00d4 0E94 0000 		call __muluhisi3
 162               	.LVL8:
 163 00d8 6058      		subi r22,-128
 164 00da 7F4F      		sbci r23,-1
 165 00dc 8F4F      		sbci r24,-1
 166 00de 9F4F      		sbci r25,-1
 167 00e0 672F      		mov r22,r23
 168 00e2 782F      		mov r23,r24
 169 00e4 892F      		mov r24,r25
 170 00e6 9927      		clr r25
 171 00e8 87FD      		sbrc r24,7
 172 00ea 9A95      		dec r25
 173               	/* epilogue start */
 138:bmp280.c      **** }
 174               		.loc 1 138 0
 175 00ec FF90      		pop r15
 176 00ee EF90      		pop r14
 177 00f0 DF90      		pop r13
 178 00f2 CF90      		pop r12
 179 00f4 BF90      		pop r11
 180 00f6 AF90      		pop r10
 181 00f8 9F90      		pop r9
 182 00fa 8F90      		pop r8
 183               	.LVL9:
 184 00fc 0895      		ret
 185               		.cfi_endproc
 186               	.LFE10:
 187               		.size	compute_temp, .-compute_temp
 188               	.global	compute_pressure
 189               		.type	compute_pressure, @function
 190               	compute_pressure:
 191               	.LFB11:
 139:bmp280.c      **** 
 140:bmp280.c      **** int32_t compute_pressure(int32_t adc_P){
 192               		.loc 1 140 0
 193               		.cfi_startproc
 194               	.LVL10:
 195 00fe 2F92      		push r2
 196               	.LCFI8:
 197               		.cfi_def_cfa_offset 3
 198               		.cfi_offset 2, -2
GAS LISTING /var/folders/7l/9pmsqbq54pd4f14gcz60xhbh0000gn/T//ccPQH7Rh.s 			page 7


 199 0100 3F92      		push r3
 200               	.LCFI9:
 201               		.cfi_def_cfa_offset 4
 202               		.cfi_offset 3, -3
 203 0102 4F92      		push r4
 204               	.LCFI10:
 205               		.cfi_def_cfa_offset 5
 206               		.cfi_offset 4, -4
 207 0104 5F92      		push r5
 208               	.LCFI11:
 209               		.cfi_def_cfa_offset 6
 210               		.cfi_offset 5, -5
 211 0106 6F92      		push r6
 212               	.LCFI12:
 213               		.cfi_def_cfa_offset 7
 214               		.cfi_offset 6, -6
 215 0108 7F92      		push r7
 216               	.LCFI13:
 217               		.cfi_def_cfa_offset 8
 218               		.cfi_offset 7, -7
 219 010a 8F92      		push r8
 220               	.LCFI14:
 221               		.cfi_def_cfa_offset 9
 222               		.cfi_offset 8, -8
 223 010c 9F92      		push r9
 224               	.LCFI15:
 225               		.cfi_def_cfa_offset 10
 226               		.cfi_offset 9, -9
 227 010e AF92      		push r10
 228               	.LCFI16:
 229               		.cfi_def_cfa_offset 11
 230               		.cfi_offset 10, -10
 231 0110 BF92      		push r11
 232               	.LCFI17:
 233               		.cfi_def_cfa_offset 12
 234               		.cfi_offset 11, -11
 235 0112 CF92      		push r12
 236               	.LCFI18:
 237               		.cfi_def_cfa_offset 13
 238               		.cfi_offset 12, -12
 239 0114 DF92      		push r13
 240               	.LCFI19:
 241               		.cfi_def_cfa_offset 14
 242               		.cfi_offset 13, -13
 243 0116 EF92      		push r14
 244               	.LCFI20:
 245               		.cfi_def_cfa_offset 15
 246               		.cfi_offset 14, -14
 247 0118 FF92      		push r15
 248               	.LCFI21:
 249               		.cfi_def_cfa_offset 16
 250               		.cfi_offset 15, -15
 251 011a 0F93      		push r16
 252               	.LCFI22:
 253               		.cfi_def_cfa_offset 17
 254               		.cfi_offset 16, -16
 255 011c 1F93      		push r17
GAS LISTING /var/folders/7l/9pmsqbq54pd4f14gcz60xhbh0000gn/T//ccPQH7Rh.s 			page 8


 256               	.LCFI23:
 257               		.cfi_def_cfa_offset 18
 258               		.cfi_offset 17, -17
 259 011e CF93      		push r28
 260               	.LCFI24:
 261               		.cfi_def_cfa_offset 19
 262               		.cfi_offset 28, -18
 263 0120 DF93      		push r29
 264               	.LCFI25:
 265               		.cfi_def_cfa_offset 20
 266               		.cfi_offset 29, -19
 267 0122 00D0      		rcall .
 268 0124 00D0      		rcall .
 269               	.LCFI26:
 270               		.cfi_def_cfa_offset 24
 271 0126 CDB7      		in r28,__SP_L__
 272 0128 DEB7      		in r29,__SP_H__
 273               	.LCFI27:
 274               		.cfi_def_cfa_register 28
 275               	/* prologue: function */
 276               	/* frame size = 4 */
 277               	/* stack size = 22 */
 278               	.L__stack_usage = 22
 279 012a 6983      		std Y+1,r22
 280 012c 7A83      		std Y+2,r23
 281 012e 8B83      		std Y+3,r24
 282 0130 9C83      		std Y+4,r25
 283               	.LVL11:
 141:bmp280.c      ****     int32_t var1, var2;
 142:bmp280.c      ****     uint32_t pressure = 0;
 143:bmp280.c      **** 
 144:bmp280.c      ****     var1 = (((int32_t) g_tfine) >> 1) - (int32_t) 64000;
 284               		.loc 1 144 0
 285 0132 8090 0000 		lds r8,g_tfine
 286 0136 9090 0000 		lds r9,g_tfine+1
 287 013a A090 0000 		lds r10,g_tfine+2
 288 013e B090 0000 		lds r11,g_tfine+3
 289 0142 B594      		asr r11
 290 0144 A794      		ror r10
 291 0146 9794      		ror r9
 292 0148 8794      		ror r8
 293 014a 8AEF      		ldi r24,-6
 294 014c 981A      		sub r9,r24
 295 014e A108      		sbc r10,__zero_reg__
 296 0150 B108      		sbc r11,__zero_reg__
 297               	.LVL12:
 145:bmp280.c      **** 	var2 = (((var1 >> 2) * (var1 >> 2)) >> 11) * ((int32_t) g_comp.dig_P6);
 298               		.loc 1 145 0
 299 0152 C501      		movw r24,r10
 300 0154 B401      		movw r22,r8
 301               	.LVL13:
 302 0156 22E0      		ldi r18,2
 303               		1:
 304 0158 9595      		asr r25
 305 015a 8795      		ror r24
 306 015c 7795      		ror r23
 307 015e 6795      		ror r22
GAS LISTING /var/folders/7l/9pmsqbq54pd4f14gcz60xhbh0000gn/T//ccPQH7Rh.s 			page 9


 308 0160 2A95      		dec r18
 309 0162 01F4      		brne 1b
 310 0164 9B01      		movw r18,r22
 311 0166 AC01      		movw r20,r24
 312 0168 0E94 0000 		call __mulsi3
 313 016c 6B01      		movw r12,r22
 314 016e 7C01      		movw r14,r24
 315 0170 E091 0000 		lds r30,g_comp+16
 316 0174 F091 0000 		lds r31,g_comp+16+1
 317               	.LVL14:
 146:bmp280.c      **** 	var2 = var2 + ((var1 * ((int32_t) g_comp.dig_P5)) << 1);
 318               		.loc 1 146 0
 319 0178 2090 0000 		lds r2,g_comp+14
 320 017c 3090 0000 		lds r3,g_comp+14+1
 321               	.LVL15:
 147:bmp280.c      **** 	var2 = (var2 >> 2) + (((int32_t) g_comp.dig_P4) << 16);
 322               		.loc 1 147 0
 323 0180 0091 0000 		lds r16,g_comp+12
 324 0184 1091 0000 		lds r17,g_comp+12+1
 325               	.LVL16:
 148:bmp280.c      **** 	var1 = (((g_comp.dig_P3 * (((var1 >> 2) * (var1 >> 2)) >> 13)) >> 3)
 326               		.loc 1 148 0
 327 0188 A091 0000 		lds r26,g_comp+10
 328 018c B091 0000 		lds r27,g_comp+10+1
 329 0190 9B01      		movw r18,r22
 330 0192 AC01      		movw r20,r24
 331 0194 6DE0      		ldi r22,13
 332               		1:
 333 0196 5595      		asr r21
 334 0198 4795      		ror r20
 335 019a 3795      		ror r19
 336 019c 2795      		ror r18
 337 019e 6A95      		dec r22
 338 01a0 01F4      		brne 1b
 339 01a2 0E94 0000 		call __mulshisi3
 340 01a6 2B01      		movw r4,r22
 341 01a8 3C01      		movw r6,r24
 342 01aa 73E0      		ldi r23,3
 343               		1:
 344 01ac 7594      		asr r7
 345 01ae 6794      		ror r6
 346 01b0 5794      		ror r5
 347 01b2 4794      		ror r4
 348 01b4 7A95      		dec r23
 349 01b6 01F4      		brne 1b
 149:bmp280.c      **** 	+ ((((int32_t) g_comp.dig_P2) * var1) >> 1)) >> 18;
 350               		.loc 1 149 0
 351 01b8 A091 0000 		lds r26,g_comp+8
 352 01bc B091 0000 		lds r27,g_comp+8+1
 353 01c0 A501      		movw r20,r10
 354 01c2 9401      		movw r18,r8
 355 01c4 0E94 0000 		call __mulshisi3
 356 01c8 9595      		asr r25
 357 01ca 8795      		ror r24
 358 01cc 7795      		ror r23
 359 01ce 6795      		ror r22
 360 01d0 460E      		add r4,r22
GAS LISTING /var/folders/7l/9pmsqbq54pd4f14gcz60xhbh0000gn/T//ccPQH7Rh.s 			page 10


 361 01d2 571E      		adc r5,r23
 362 01d4 681E      		adc r6,r24
 363 01d6 791E      		adc r7,r25
 364               	.LVL17:
 148:bmp280.c      **** 	var1 = (((g_comp.dig_P3 * (((var1 >> 2) * (var1 >> 2)) >> 13)) >> 3)
 365               		.loc 1 148 0
 366 01d8 B2E1      		ldi r27,18
 367               		1:
 368 01da 7594      		asr r7
 369 01dc 6794      		ror r6
 370 01de 5794      		ror r5
 371 01e0 4794      		ror r4
 372 01e2 BA95      		dec r27
 373 01e4 01F4      		brne 1b
 374               	.LVL18:
 150:bmp280.c      **** 	var1 = ((((32768 + var1)) * ((int32_t) g_comp.dig_P1)) >> 15);
 375               		.loc 1 150 0
 376 01e6 80E8      		ldi r24,-128
 377 01e8 580E      		add r5,r24
 378 01ea 611C      		adc r6,__zero_reg__
 379 01ec 711C      		adc r7,__zero_reg__
 380               	.LVL19:
 381 01ee A091 0000 		lds r26,g_comp+6
 382 01f2 B091 0000 		lds r27,g_comp+6+1
 383 01f6 A301      		movw r20,r6
 384 01f8 9201      		movw r18,r4
 385 01fa 0E94 0000 		call __muluhisi3
 386 01fe 2B01      		movw r4,r22
 387 0200 3C01      		movw r6,r24
 388               	.LVL20:
 389 0202 8FE0      		ldi r24,15
 390               		1:
 391 0204 7594      		asr r7
 392 0206 6794      		ror r6
 393 0208 5794      		ror r5
 394 020a 4794      		ror r4
 395 020c 8A95      		dec r24
 396 020e 01F4      		brne 1b
 397               	.LVL21:
 151:bmp280.c      **** 	pressure = (((uint32_t) (((int32_t) 1048576) - adc_P) - (var2 >> 12))) * 3125;
 152:bmp280.c      **** 
 153:bmp280.c      **** 	/* Avoid exception caused by division with zero */
 154:bmp280.c      **** 	if (var1 != 0) {
 398               		.loc 1 154 0
 399 0210 4114      		cp r4,__zero_reg__
 400 0212 5104      		cpc r5,__zero_reg__
 401 0214 6104      		cpc r6,__zero_reg__
 402 0216 7104      		cpc r7,__zero_reg__
 403 0218 01F4      		brne .+2
 404 021a 00C0      		rjmp .L6
 145:bmp280.c      **** 	var2 = (((var1 >> 2) * (var1 >> 2)) >> 11) * ((int32_t) g_comp.dig_P6);
 405               		.loc 1 145 0
 406 021c A701      		movw r20,r14
 407 021e 9601      		movw r18,r12
 408 0220 6BE0      		ldi r22,11
 409               		1:
 410 0222 5595      		asr r21
GAS LISTING /var/folders/7l/9pmsqbq54pd4f14gcz60xhbh0000gn/T//ccPQH7Rh.s 			page 11


 411 0224 4795      		ror r20
 412 0226 3795      		ror r19
 413 0228 2795      		ror r18
 414 022a 6A95      		dec r22
 415 022c 01F4      		brne 1b
 416               	.LVL22:
 417 022e DF01      		movw r26,r30
 418 0230 0E94 0000 		call __mulshisi3
 419 0234 6B01      		movw r12,r22
 420 0236 7C01      		movw r14,r24
 146:bmp280.c      **** 	var2 = var2 + ((var1 * ((int32_t) g_comp.dig_P5)) << 1);
 421               		.loc 1 146 0
 422 0238 D101      		movw r26,r2
 423 023a A501      		movw r20,r10
 424 023c 9401      		movw r18,r8
 425               	.LVL23:
 426 023e 0E94 0000 		call __mulshisi3
 427 0242 660F      		lsl r22
 428 0244 771F      		rol r23
 429 0246 881F      		rol r24
 430 0248 991F      		rol r25
 431               	.LVL24:
 432 024a C60E      		add r12,r22
 433 024c D71E      		adc r13,r23
 434 024e E81E      		adc r14,r24
 435 0250 F91E      		adc r15,r25
 147:bmp280.c      **** 	var2 = (var2 >> 2) + (((int32_t) g_comp.dig_P4) << 16);
 436               		.loc 1 147 0
 437 0252 F2E0      		ldi r31,2
 438               		1:
 439 0254 F594      		asr r15
 440 0256 E794      		ror r14
 441 0258 D794      		ror r13
 442 025a C794      		ror r12
 443 025c FA95      		dec r31
 444 025e 01F4      		brne 1b
 151:bmp280.c      **** 	pressure = (((uint32_t) (((int32_t) 1048576) - adc_P) - (var2 >> 12))) * 3125;
 445               		.loc 1 151 0
 446 0260 2981      		ldd r18,Y+1
 447 0262 3A81      		ldd r19,Y+2
 448 0264 4B81      		ldd r20,Y+3
 449 0266 5C81      		ldd r21,Y+4
 450 0268 5095      		com r21
 451 026a 4095      		com r20
 452 026c 3095      		com r19
 453 026e 2195      		neg r18
 454 0270 3F4F      		sbci r19,lo8(-1)
 455 0272 4F4F      		sbci r20,lo8(-1)
 456 0274 5F4F      		sbci r21,lo8(-1)
 457               	.LVL25:
 147:bmp280.c      **** 	var2 = (var2 >> 2) + (((int32_t) g_comp.dig_P4) << 16);
 458               		.loc 1 147 0
 459 0276 C801      		movw r24,r16
 460 0278 AA27      		clr r26
 461 027a 97FD      		sbrc r25,7
 462 027c A095      		com r26
 463 027e BA2F      		mov r27,r26
GAS LISTING /var/folders/7l/9pmsqbq54pd4f14gcz60xhbh0000gn/T//ccPQH7Rh.s 			page 12


 464               	.LVL26:
 465 0280 DC01      		movw r26,r24
 466 0282 9927      		clr r25
 467 0284 8827      		clr r24
 468               	.LVL27:
 469 0286 C80E      		add r12,r24
 470 0288 D91E      		adc r13,r25
 471 028a EA1E      		adc r14,r26
 472 028c FB1E      		adc r15,r27
 151:bmp280.c      **** 	pressure = (((uint32_t) (((int32_t) 1048576) - adc_P) - (var2 >> 12))) * 3125;
 473               		.loc 1 151 0
 474 028e 0CE0      		ldi r16,12
 475               		1:
 476 0290 F594      		asr r15
 477 0292 E794      		ror r14
 478 0294 D794      		ror r13
 479 0296 C794      		ror r12
 480 0298 0A95      		dec r16
 481 029a 01F4      		brne 1b
 482               	.LVL28:
 483 029c 2C19      		sub r18,r12
 484 029e 3D09      		sbc r19,r13
 485 02a0 4E09      		sbc r20,r14
 486 02a2 5F09      		sbc r21,r15
 487               	.LVL29:
 488 02a4 A5E3      		ldi r26,lo8(53)
 489 02a6 BCE0      		ldi r27,lo8(12)
 490 02a8 0E94 0000 		call __muluhisi3
 491 02ac 805B      		subi r24,-80
 492 02ae 9C43      		sbci r25,60
 155:bmp280.c      **** 		/* Check for overflows against UINT32_MAX/2; if pres is left-shifted by 1 */
 156:bmp280.c      **** 		if (pressure < 0x80000000)
 493               		.loc 1 156 0
 494 02b0 97FD      		sbrc r25,7
 495 02b2 00C0      		rjmp .L4
 157:bmp280.c      **** 			pressure = (pressure << 1) / ((uint32_t) var1);
 496               		.loc 1 157 0
 497 02b4 660F      		lsl r22
 498 02b6 771F      		rol r23
 499 02b8 881F      		rol r24
 500 02ba 991F      		rol r25
 501 02bc A301      		movw r20,r6
 502 02be 9201      		movw r18,r4
 503 02c0 0E94 0000 		call __udivmodsi4
 504 02c4 4901      		movw r8,r18
 505 02c6 5A01      		movw r10,r20
 506               	.LVL30:
 507 02c8 00C0      		rjmp .L5
 508               	.LVL31:
 509               	.L4:
 158:bmp280.c      **** 		else
 159:bmp280.c      **** 			pressure = (pressure / (uint32_t) var1) * 2;
 510               		.loc 1 159 0
 511 02ca A301      		movw r20,r6
 512 02cc 9201      		movw r18,r4
 513 02ce 0E94 0000 		call __udivmodsi4
 514 02d2 4901      		movw r8,r18
GAS LISTING /var/folders/7l/9pmsqbq54pd4f14gcz60xhbh0000gn/T//ccPQH7Rh.s 			page 13


 515 02d4 5A01      		movw r10,r20
 516               	.LVL32:
 517 02d6 880C      		lsl r8
 518 02d8 991C      		rol r9
 519 02da AA1C      		rol r10
 520 02dc BB1C      		rol r11
 521               	.LVL33:
 522               	.L5:
 160:bmp280.c      **** 
 161:bmp280.c      **** 		var1 = (((int32_t) g_comp.dig_P9)
 162:bmp280.c      **** 		* ((int32_t) (((pressure >> 3) * (pressure >> 3)) >> 13))) >> 12;
 523               		.loc 1 162 0 discriminator 1
 524 02de C501      		movw r24,r10
 525 02e0 B401      		movw r22,r8
 526 02e2 13E0      		ldi r17,3
 527               		1:
 528 02e4 9695      		lsr r25
 529 02e6 8795      		ror r24
 530 02e8 7795      		ror r23
 531 02ea 6795      		ror r22
 532 02ec 1A95      		dec r17
 533 02ee 01F4      		brne 1b
 534               	.LVL34:
 161:bmp280.c      **** 		var1 = (((int32_t) g_comp.dig_P9)
 535               		.loc 1 161 0 discriminator 1
 536 02f0 E091 0000 		lds r30,g_comp+22
 537 02f4 F091 0000 		lds r31,g_comp+22+1
 538               		.loc 1 162 0 discriminator 1
 539 02f8 9B01      		movw r18,r22
 540 02fa AC01      		movw r20,r24
 541 02fc 0E94 0000 		call __mulsi3
 542               	.LVL35:
 543 0300 9B01      		movw r18,r22
 544 0302 AC01      		movw r20,r24
 545               	.LVL36:
 546 0304 0DE0      		ldi r16,13
 547               		1:
 548 0306 5695      		lsr r21
 549 0308 4795      		ror r20
 550 030a 3795      		ror r19
 551 030c 2795      		ror r18
 552 030e 0A95      		dec r16
 553 0310 01F4      		brne 1b
 554 0312 DF01      		movw r26,r30
 555 0314 0E94 0000 		call __mulshisi3
 556 0318 6B01      		movw r12,r22
 557 031a 7C01      		movw r14,r24
 161:bmp280.c      **** 		var1 = (((int32_t) g_comp.dig_P9)
 558               		.loc 1 161 0 discriminator 1
 559 031c 8CE0      		ldi r24,12
 560               		1:
 561 031e F594      		asr r15
 562 0320 E794      		ror r14
 563 0322 D794      		ror r13
 564 0324 C794      		ror r12
 565 0326 8A95      		dec r24
 566 0328 01F4      		brne 1b
GAS LISTING /var/folders/7l/9pmsqbq54pd4f14gcz60xhbh0000gn/T//ccPQH7Rh.s 			page 14


 567               	.LVL37:
 163:bmp280.c      **** 		var2 = (((int32_t) (pressure >> 2)) * ((int32_t) g_comp.dig_P8)) >> 13;
 568               		.loc 1 163 0 discriminator 1
 569 032a A501      		movw r20,r10
 570 032c 9401      		movw r18,r8
 571 032e 92E0      		ldi r25,2
 572               		1:
 573 0330 5695      		lsr r21
 574 0332 4795      		ror r20
 575 0334 3795      		ror r19
 576 0336 2795      		ror r18
 577 0338 9A95      		dec r25
 578 033a 01F4      		brne 1b
 579 033c A091 0000 		lds r26,g_comp+20
 580 0340 B091 0000 		lds r27,g_comp+20+1
 581 0344 0E94 0000 		call __mulshisi3
 582 0348 2DE0      		ldi r18,13
 583               		1:
 584 034a 9595      		asr r25
 585 034c 8795      		ror r24
 586 034e 7795      		ror r23
 587 0350 6795      		ror r22
 588 0352 2A95      		dec r18
 589 0354 01F4      		brne 1b
 590               	.LVL38:
 164:bmp280.c      **** 		pressure = (uint32_t) ((int32_t) pressure + ((var1 + var2 + g_comp.dig_P7) >> 4));
 591               		.loc 1 164 0 discriminator 1
 592 0356 C60E      		add r12,r22
 593 0358 D71E      		adc r13,r23
 594 035a E81E      		adc r14,r24
 595 035c F91E      		adc r15,r25
 596               	.LVL39:
 597 035e 8091 0000 		lds r24,g_comp+18
 598 0362 9091 0000 		lds r25,g_comp+18+1
 599 0366 AA27      		clr r26
 600 0368 97FD      		sbrc r25,7
 601 036a A095      		com r26
 602 036c BA2F      		mov r27,r26
 603 036e C80E      		add r12,r24
 604 0370 D91E      		adc r13,r25
 605 0372 EA1E      		adc r14,r26
 606 0374 FB1E      		adc r15,r27
 607 0376 34E0      		ldi r19,4
 608               		1:
 609 0378 F594      		asr r15
 610 037a E794      		ror r14
 611 037c D794      		ror r13
 612 037e C794      		ror r12
 613 0380 3A95      		dec r19
 614 0382 01F4      		brne 1b
 615 0384 C80C      		add r12,r8
 616 0386 D91C      		adc r13,r9
 617 0388 EA1C      		adc r14,r10
 618 038a FB1C      		adc r15,r11
 619               	.LVL40:
 620 038c 00C0      		rjmp .L3
 621               	.LVL41:
GAS LISTING /var/folders/7l/9pmsqbq54pd4f14gcz60xhbh0000gn/T//ccPQH7Rh.s 			page 15


 622               	.L6:
 165:bmp280.c      **** 	} else {
 166:bmp280.c      **** 		pressure = 0;
 623               		.loc 1 166 0
 624 038e C12C      		mov r12,__zero_reg__
 625 0390 D12C      		mov r13,__zero_reg__
 626 0392 7601      		movw r14,r12
 627               	.LVL42:
 628               	.L3:
 167:bmp280.c      **** 	}
 168:bmp280.c      **** 	return pressure;
 169:bmp280.c      **** }
 629               		.loc 1 169 0
 630 0394 C701      		movw r24,r14
 631 0396 B601      		movw r22,r12
 632               	/* epilogue start */
 633 0398 0F90      		pop __tmp_reg__
 634 039a 0F90      		pop __tmp_reg__
 635 039c 0F90      		pop __tmp_reg__
 636 039e 0F90      		pop __tmp_reg__
 637 03a0 DF91      		pop r29
 638 03a2 CF91      		pop r28
 639               	.LVL43:
 640 03a4 1F91      		pop r17
 641               	.LVL44:
 642 03a6 0F91      		pop r16
 643               	.LVL45:
 644 03a8 FF90      		pop r15
 645               	.LVL46:
 646 03aa EF90      		pop r14
 647               	.LVL47:
 648 03ac DF90      		pop r13
 649               	.LVL48:
 650 03ae CF90      		pop r12
 651               	.LVL49:
 652 03b0 BF90      		pop r11
 653               	.LVL50:
 654 03b2 AF90      		pop r10
 655               	.LVL51:
 656 03b4 9F90      		pop r9
 657               	.LVL52:
 658 03b6 8F90      		pop r8
 659               	.LVL53:
 660 03b8 7F90      		pop r7
 661               	.LVL54:
 662 03ba 6F90      		pop r6
 663               	.LVL55:
 664 03bc 5F90      		pop r5
 665               	.LVL56:
 666 03be 4F90      		pop r4
 667               	.LVL57:
 668 03c0 3F90      		pop r3
 669               	.LVL58:
 670 03c2 2F90      		pop r2
 671               	.LVL59:
 672 03c4 0895      		ret
 673               		.cfi_endproc
GAS LISTING /var/folders/7l/9pmsqbq54pd4f14gcz60xhbh0000gn/T//ccPQH7Rh.s 			page 16


 674               	.LFE11:
 675               		.size	compute_pressure, .-compute_pressure
 676               	.global	bmp280_read_regs
 677               		.type	bmp280_read_regs, @function
 678               	bmp280_read_regs:
 679               	.LFB15:
 170:bmp280.c      **** 
 171:bmp280.c      **** /* bmp280_get_temp
 172:bmp280.c      ****  * Returns temperature measured by device in decicentigrade (.01C / DN)
 173:bmp280.c      ****  */
 174:bmp280.c      **** int32_t bmp280_get_temp(void){
 175:bmp280.c      ****     int32_t adc_T;
 176:bmp280.c      **** 
 177:bmp280.c      ****     adc_T = read_20bit_reg(BMP280_REG_TEMP_MSB);
 178:bmp280.c      ****     return compute_temp(adc_T);
 179:bmp280.c      **** }
 180:bmp280.c      **** 
 181:bmp280.c      **** /* bmp280_get_pressure
 182:bmp280.c      ****  * Returns pressure measured by device in Pascal (1Pa / DN)
 183:bmp280.c      ****  */
 184:bmp280.c      **** int32_t bmp280_get_pressure(void){
 185:bmp280.c      ****     int32_t adc_P;
 186:bmp280.c      ****     
 187:bmp280.c      ****     bmp280_get_temp();
 188:bmp280.c      ****     adc_P = read_20bit_reg(BMP280_REG_PRESS_MSB);
 189:bmp280.c      ****     return compute_pressure(adc_P);
 190:bmp280.c      **** }
 191:bmp280.c      **** 
 192:bmp280.c      **** void bmp280_get_temp_press(int32_t *t, int32_t *p){
 193:bmp280.c      ****     int32_t adc_T, adc_P;
 194:bmp280.c      ****     bmp280_read_regs(BMP280_REG_PRESS_MSB, 6);
 195:bmp280.c      ****     adc_P = (int32_t)(((uint32_t)g_buff[0]<<12) | (g_buff[1]<<4) | (g_buff[2] >>4));
 196:bmp280.c      ****     adc_T = (int32_t)(((uint32_t)g_buff[3]<<12) | (g_buff[4]<<4) | (g_buff[5] >>4));
 197:bmp280.c      **** 
 198:bmp280.c      ****     *t = compute_temp(adc_T);
 199:bmp280.c      ****     *p = compute_pressure(adc_P);
 200:bmp280.c      **** }
 201:bmp280.c      **** /* bmp280_read_regs
 202:bmp280.c      ****  * Reads len 8bit registers starting at addr
 203:bmp280.c      ****  */
 204:bmp280.c      **** 
 205:bmp280.c      **** int8_t bmp280_read_regs(uint8_t addr, uint8_t len)
 206:bmp280.c      **** {
 680               		.loc 1 206 0
 681               		.cfi_startproc
 682               	.LVL60:
 683 03c6 CF93      		push r28
 684               	.LCFI28:
 685               		.cfi_def_cfa_offset 3
 686               		.cfi_offset 28, -2
 687               	/* prologue: function */
 688               	/* frame size = 0 */
 689               	/* stack size = 1 */
 690               	.L__stack_usage = 1
 691 03c8 C62F      		mov r28,r22
 692               	.LVL61:
 207:bmp280.c      ****     int8_t retval = I2C_OK;
GAS LISTING /var/folders/7l/9pmsqbq54pd4f14gcz60xhbh0000gn/T//ccPQH7Rh.s 			page 17


 208:bmp280.c      **** 
 209:bmp280.c      ****     // First send address
 210:bmp280.c      ****     g_buff[0] = addr;
 693               		.loc 1 210 0
 694 03ca 8093 0000 		sts g_buff,r24
 211:bmp280.c      ****     retval = i2cMasterSend(g_dev_addr, 1, g_buff);
 695               		.loc 1 211 0
 696 03ce 40E0      		ldi r20,lo8(g_buff)
 697 03d0 50E0      		ldi r21,hi8(g_buff)
 698 03d2 61E0      		ldi r22,lo8(1)
 699               	.LVL62:
 700 03d4 8091 0000 		lds r24,g_dev_addr
 701               	.LVL63:
 702 03d8 0E94 0000 		call i2cMasterSend
 703               	.LVL64:
 212:bmp280.c      ****     if(retval != I2C_OK) return retval;
 704               		.loc 1 212 0
 705 03dc 8111      		cpse r24,__zero_reg__
 706 03de 00C0      		rjmp .L9
 707               	.LVL65:
 708               	.LBB6:
 709               	.LBB7:
 213:bmp280.c      ****     
 214:bmp280.c      ****     // Now receive
 215:bmp280.c      ****     retval = i2cMasterReceive(g_dev_addr, len, g_buff);
 710               		.loc 1 215 0
 711 03e0 40E0      		ldi r20,lo8(g_buff)
 712 03e2 50E0      		ldi r21,hi8(g_buff)
 713 03e4 6C2F      		mov r22,r28
 714 03e6 8091 0000 		lds r24,g_dev_addr
 715               	.LVL66:
 716               	/* epilogue start */
 717               	.LBE7:
 718               	.LBE6:
 216:bmp280.c      ****     return retval;
 217:bmp280.c      **** }
 719               		.loc 1 217 0
 720 03ea CF91      		pop r28
 721               	.LVL67:
 722               	.LBB9:
 723               	.LBB8:
 215:bmp280.c      ****     retval = i2cMasterReceive(g_dev_addr, len, g_buff);
 724               		.loc 1 215 0
 725 03ec 0C94 0000 		jmp i2cMasterReceive
 726               	.LVL68:
 727               	.L9:
 728               	/* epilogue start */
 729               	.LBE8:
 730               	.LBE9:
 731               		.loc 1 217 0
 732 03f0 CF91      		pop r28
 733               	.LVL69:
 734 03f2 0895      		ret
 735               		.cfi_endproc
 736               	.LFE15:
 737               		.size	bmp280_read_regs, .-bmp280_read_regs
 738               	.global	bmp280_busy
GAS LISTING /var/folders/7l/9pmsqbq54pd4f14gcz60xhbh0000gn/T//ccPQH7Rh.s 			page 18


 739               		.type	bmp280_busy, @function
 740               	bmp280_busy:
 741               	.LFB7:
  71:bmp280.c      **** uint8_t bmp280_busy(void){
 742               		.loc 1 71 0
 743               		.cfi_startproc
 744               	/* prologue: function */
 745               	/* frame size = 0 */
 746               	/* stack size = 0 */
 747               	.L__stack_usage = 0
  72:bmp280.c      ****     bmp280_read_regs(BMP280_REG_STATUS, 1);
 748               		.loc 1 72 0
 749 03f4 61E0      		ldi r22,lo8(1)
 750 03f6 83EF      		ldi r24,lo8(-13)
 751 03f8 0E94 0000 		call bmp280_read_regs
 752               	.LVL70:
  73:bmp280.c      ****     return (g_buff[0] != 0);
 753               		.loc 1 73 0
 754 03fc 81E0      		ldi r24,lo8(1)
 755 03fe 9091 0000 		lds r25,g_buff
 756 0402 9111      		cpse r25,__zero_reg__
 757 0404 00C0      		rjmp .L11
 758 0406 80E0      		ldi r24,0
 759               	.L11:
  74:bmp280.c      **** }
 760               		.loc 1 74 0
 761 0408 0895      		ret
 762               		.cfi_endproc
 763               	.LFE7:
 764               		.size	bmp280_busy, .-bmp280_busy
 765               	.global	bmp280_load_compensation
 766               		.type	bmp280_load_compensation, @function
 767               	bmp280_load_compensation:
 768               	.LFB8:
  81:bmp280.c      **** int8_t bmp280_load_compensation(void){
 769               		.loc 1 81 0
 770               		.cfi_startproc
 771 040a 0F93      		push r16
 772               	.LCFI29:
 773               		.cfi_def_cfa_offset 3
 774               		.cfi_offset 16, -2
 775 040c 1F93      		push r17
 776               	.LCFI30:
 777               		.cfi_def_cfa_offset 4
 778               		.cfi_offset 17, -3
 779 040e CF93      		push r28
 780               	.LCFI31:
 781               		.cfi_def_cfa_offset 5
 782               		.cfi_offset 28, -4
 783 0410 DF93      		push r29
 784               	.LCFI32:
 785               		.cfi_def_cfa_offset 6
 786               		.cfi_offset 29, -5
 787               	/* prologue: function */
 788               	/* frame size = 0 */
 789               	/* stack size = 4 */
 790               	.L__stack_usage = 4
GAS LISTING /var/folders/7l/9pmsqbq54pd4f14gcz60xhbh0000gn/T//ccPQH7Rh.s 			page 19


 791               	.LVL71:
  84:bmp280.c      ****     retval = bmp280_read_regs(BMP280_REG_DIG_T1, 2);
 792               		.loc 1 84 0
 793 0412 62E0      		ldi r22,lo8(2)
 794 0414 88E8      		ldi r24,lo8(-120)
 795 0416 0E94 0000 		call bmp280_read_regs
 796               	.LVL72:
  85:bmp280.c      ****     g_comp.dig_T1 = (uint16_t)((uint16_t)g_buff[0] | (g_buff[1]<<8));
 797               		.loc 1 85 0
 798 041a 00E0      		ldi r16,lo8(g_buff+1)
 799 041c 10E0      		ldi r17,hi8(g_buff+1)
 800 041e F801      		movw r30,r16
 801 0420 8081      		ld r24,Z
 802 0422 90E0      		ldi r25,0
 803 0424 982F      		mov r25,r24
 804 0426 8827      		clr r24
 805 0428 C0E0      		ldi r28,lo8(g_buff)
 806 042a D0E0      		ldi r29,hi8(g_buff)
 807 042c 2881      		ld r18,Y
 808 042e 822B      		or r24,r18
 809 0430 9093 0000 		sts g_comp+1,r25
 810 0434 8093 0000 		sts g_comp,r24
  87:bmp280.c      ****     retval = bmp280_read_regs(BMP280_REG_DIG_T2, 2);
 811               		.loc 1 87 0
 812 0438 62E0      		ldi r22,lo8(2)
 813 043a 8AE8      		ldi r24,lo8(-118)
 814 043c 0E94 0000 		call bmp280_read_regs
 815               	.LVL73:
  88:bmp280.c      ****     g_comp.dig_T2 = (int16_t)((uint16_t)g_buff[0] | (g_buff[1]<<8));
 816               		.loc 1 88 0
 817 0440 F801      		movw r30,r16
 818 0442 8081      		ld r24,Z
 819 0444 90E0      		ldi r25,0
 820 0446 982F      		mov r25,r24
 821 0448 8827      		clr r24
 822 044a 2881      		ld r18,Y
 823 044c 822B      		or r24,r18
 824 044e 9093 0000 		sts g_comp+2+1,r25
 825 0452 8093 0000 		sts g_comp+2,r24
  90:bmp280.c      ****     retval = bmp280_read_regs(BMP280_REG_DIG_T3, 2);
 826               		.loc 1 90 0
 827 0456 62E0      		ldi r22,lo8(2)
 828 0458 8CE8      		ldi r24,lo8(-116)
 829 045a 0E94 0000 		call bmp280_read_regs
 830               	.LVL74:
  91:bmp280.c      ****     g_comp.dig_T3 = (int16_t)((uint16_t)g_buff[0] | (g_buff[1]<<8));
 831               		.loc 1 91 0
 832 045e F801      		movw r30,r16
 833 0460 8081      		ld r24,Z
 834 0462 90E0      		ldi r25,0
 835 0464 982F      		mov r25,r24
 836 0466 8827      		clr r24
 837 0468 2881      		ld r18,Y
 838 046a 822B      		or r24,r18
 839 046c 9093 0000 		sts g_comp+4+1,r25
 840 0470 8093 0000 		sts g_comp+4,r24
  93:bmp280.c      ****     retval = bmp280_read_regs(BMP280_REG_DIG_P1, 2);
GAS LISTING /var/folders/7l/9pmsqbq54pd4f14gcz60xhbh0000gn/T//ccPQH7Rh.s 			page 20


 841               		.loc 1 93 0
 842 0474 62E0      		ldi r22,lo8(2)
 843 0476 8EE8      		ldi r24,lo8(-114)
 844 0478 0E94 0000 		call bmp280_read_regs
 845               	.LVL75:
  94:bmp280.c      ****     g_comp.dig_P1 = (uint16_t)((uint16_t)g_buff[0] | (g_buff[1]<<8));
 846               		.loc 1 94 0
 847 047c F801      		movw r30,r16
 848 047e 8081      		ld r24,Z
 849 0480 90E0      		ldi r25,0
 850 0482 982F      		mov r25,r24
 851 0484 8827      		clr r24
 852 0486 2881      		ld r18,Y
 853 0488 822B      		or r24,r18
 854 048a 9093 0000 		sts g_comp+6+1,r25
 855 048e 8093 0000 		sts g_comp+6,r24
  96:bmp280.c      ****     retval = bmp280_read_regs(BMP280_REG_DIG_P2, 2);
 856               		.loc 1 96 0
 857 0492 62E0      		ldi r22,lo8(2)
 858 0494 80E9      		ldi r24,lo8(-112)
 859 0496 0E94 0000 		call bmp280_read_regs
 860               	.LVL76:
  97:bmp280.c      ****     g_comp.dig_P2 = (int16_t)((uint16_t)g_buff[0] | (g_buff[1]<<8));
 861               		.loc 1 97 0
 862 049a F801      		movw r30,r16
 863 049c 8081      		ld r24,Z
 864 049e 90E0      		ldi r25,0
 865 04a0 982F      		mov r25,r24
 866 04a2 8827      		clr r24
 867 04a4 2881      		ld r18,Y
 868 04a6 822B      		or r24,r18
 869 04a8 9093 0000 		sts g_comp+8+1,r25
 870 04ac 8093 0000 		sts g_comp+8,r24
  99:bmp280.c      ****     retval = bmp280_read_regs(BMP280_REG_DIG_P3, 2);
 871               		.loc 1 99 0
 872 04b0 62E0      		ldi r22,lo8(2)
 873 04b2 82E9      		ldi r24,lo8(-110)
 874 04b4 0E94 0000 		call bmp280_read_regs
 875               	.LVL77:
 100:bmp280.c      ****     g_comp.dig_P3 = (int16_t)((uint16_t)g_buff[0] | (g_buff[1]<<8));
 876               		.loc 1 100 0
 877 04b8 F801      		movw r30,r16
 878 04ba 8081      		ld r24,Z
 879 04bc 90E0      		ldi r25,0
 880 04be 982F      		mov r25,r24
 881 04c0 8827      		clr r24
 882 04c2 2881      		ld r18,Y
 883 04c4 822B      		or r24,r18
 884 04c6 9093 0000 		sts g_comp+10+1,r25
 885 04ca 8093 0000 		sts g_comp+10,r24
 102:bmp280.c      ****     retval = bmp280_read_regs(BMP280_REG_DIG_P4, 2);
 886               		.loc 1 102 0
 887 04ce 62E0      		ldi r22,lo8(2)
 888 04d0 84E9      		ldi r24,lo8(-108)
 889 04d2 0E94 0000 		call bmp280_read_regs
 890               	.LVL78:
 103:bmp280.c      ****     g_comp.dig_P4 = (int16_t)((uint16_t)g_buff[0] | (g_buff[1]<<8));
GAS LISTING /var/folders/7l/9pmsqbq54pd4f14gcz60xhbh0000gn/T//ccPQH7Rh.s 			page 21


 891               		.loc 1 103 0
 892 04d6 F801      		movw r30,r16
 893 04d8 8081      		ld r24,Z
 894 04da 90E0      		ldi r25,0
 895 04dc 982F      		mov r25,r24
 896 04de 8827      		clr r24
 897 04e0 2881      		ld r18,Y
 898 04e2 822B      		or r24,r18
 899 04e4 9093 0000 		sts g_comp+12+1,r25
 900 04e8 8093 0000 		sts g_comp+12,r24
 105:bmp280.c      ****     retval = bmp280_read_regs(BMP280_REG_DIG_P5, 2);
 901               		.loc 1 105 0
 902 04ec 62E0      		ldi r22,lo8(2)
 903 04ee 86E9      		ldi r24,lo8(-106)
 904 04f0 0E94 0000 		call bmp280_read_regs
 905               	.LVL79:
 106:bmp280.c      ****     g_comp.dig_P5 = (int16_t)((uint16_t)g_buff[0] | (g_buff[1]<<8));
 906               		.loc 1 106 0
 907 04f4 F801      		movw r30,r16
 908 04f6 8081      		ld r24,Z
 909 04f8 90E0      		ldi r25,0
 910 04fa 982F      		mov r25,r24
 911 04fc 8827      		clr r24
 912 04fe 2881      		ld r18,Y
 913 0500 822B      		or r24,r18
 914 0502 9093 0000 		sts g_comp+14+1,r25
 915 0506 8093 0000 		sts g_comp+14,r24
 108:bmp280.c      ****     retval = bmp280_read_regs(BMP280_REG_DIG_P6, 2);
 916               		.loc 1 108 0
 917 050a 62E0      		ldi r22,lo8(2)
 918 050c 88E9      		ldi r24,lo8(-104)
 919 050e 0E94 0000 		call bmp280_read_regs
 920               	.LVL80:
 109:bmp280.c      ****     g_comp.dig_P6 = (int16_t)((uint16_t)g_buff[0] | (g_buff[1]<<8));
 921               		.loc 1 109 0
 922 0512 F801      		movw r30,r16
 923 0514 8081      		ld r24,Z
 924 0516 90E0      		ldi r25,0
 925 0518 982F      		mov r25,r24
 926 051a 8827      		clr r24
 927 051c 2881      		ld r18,Y
 928 051e 822B      		or r24,r18
 929 0520 9093 0000 		sts g_comp+16+1,r25
 930 0524 8093 0000 		sts g_comp+16,r24
 111:bmp280.c      ****     retval = bmp280_read_regs(BMP280_REG_DIG_P7, 2);
 931               		.loc 1 111 0
 932 0528 62E0      		ldi r22,lo8(2)
 933 052a 8AE9      		ldi r24,lo8(-102)
 934 052c 0E94 0000 		call bmp280_read_regs
 935               	.LVL81:
 112:bmp280.c      ****     g_comp.dig_P7 = (int16_t)((uint16_t)g_buff[0] | (g_buff[1]<<8));
 936               		.loc 1 112 0
 937 0530 F801      		movw r30,r16
 938 0532 8081      		ld r24,Z
 939 0534 90E0      		ldi r25,0
 940 0536 982F      		mov r25,r24
 941 0538 8827      		clr r24
GAS LISTING /var/folders/7l/9pmsqbq54pd4f14gcz60xhbh0000gn/T//ccPQH7Rh.s 			page 22


 942 053a 2881      		ld r18,Y
 943 053c 822B      		or r24,r18
 944 053e 9093 0000 		sts g_comp+18+1,r25
 945 0542 8093 0000 		sts g_comp+18,r24
 114:bmp280.c      ****     retval = bmp280_read_regs(BMP280_REG_DIG_P8, 2);
 946               		.loc 1 114 0
 947 0546 62E0      		ldi r22,lo8(2)
 948 0548 8CE9      		ldi r24,lo8(-100)
 949 054a 0E94 0000 		call bmp280_read_regs
 950               	.LVL82:
 115:bmp280.c      ****     g_comp.dig_P8 = (int16_t)((uint16_t)g_buff[0] | (g_buff[1]<<8));
 951               		.loc 1 115 0
 952 054e F801      		movw r30,r16
 953 0550 8081      		ld r24,Z
 954 0552 90E0      		ldi r25,0
 955 0554 982F      		mov r25,r24
 956 0556 8827      		clr r24
 957 0558 2881      		ld r18,Y
 958 055a 822B      		or r24,r18
 959 055c 9093 0000 		sts g_comp+20+1,r25
 960 0560 8093 0000 		sts g_comp+20,r24
 117:bmp280.c      ****     retval = bmp280_read_regs(BMP280_REG_DIG_P9, 2);
 961               		.loc 1 117 0
 962 0564 62E0      		ldi r22,lo8(2)
 963 0566 8EE9      		ldi r24,lo8(-98)
 964 0568 0E94 0000 		call bmp280_read_regs
 965               	.LVL83:
 118:bmp280.c      ****     g_comp.dig_P9 = (int16_t)((uint16_t)g_buff[0] | (g_buff[1]<<8));
 966               		.loc 1 118 0
 967 056c F801      		movw r30,r16
 968 056e 2081      		ld r18,Z
 969 0570 30E0      		ldi r19,0
 970 0572 322F      		mov r19,r18
 971 0574 2227      		clr r18
 972 0576 9881      		ld r25,Y
 973 0578 292B      		or r18,r25
 974 057a 3093 0000 		sts g_comp+22+1,r19
 975 057e 2093 0000 		sts g_comp+22,r18
 976               	/* epilogue start */
 120:bmp280.c      **** }
 977               		.loc 1 120 0
 978 0582 DF91      		pop r29
 979 0584 CF91      		pop r28
 980 0586 1F91      		pop r17
 981 0588 0F91      		pop r16
 982 058a 0895      		ret
 983               		.cfi_endproc
 984               	.LFE8:
 985               		.size	bmp280_load_compensation, .-bmp280_load_compensation
 986               	.global	read_20bit_reg
 987               		.type	read_20bit_reg, @function
 988               	read_20bit_reg:
 989               	.LFB9:
 122:bmp280.c      **** int32_t read_20bit_reg(uint8_t start_addr){
 990               		.loc 1 122 0
 991               		.cfi_startproc
 992               	.LVL84:
GAS LISTING /var/folders/7l/9pmsqbq54pd4f14gcz60xhbh0000gn/T//ccPQH7Rh.s 			page 23


 993 058c 0F93      		push r16
 994               	.LCFI33:
 995               		.cfi_def_cfa_offset 3
 996               		.cfi_offset 16, -2
 997 058e 1F93      		push r17
 998               	.LCFI34:
 999               		.cfi_def_cfa_offset 4
 1000               		.cfi_offset 17, -3
 1001               	/* prologue: function */
 1002               	/* frame size = 0 */
 1003               	/* stack size = 2 */
 1004               	.L__stack_usage = 2
 123:bmp280.c      ****     bmp280_read_regs(start_addr, 3);
 1005               		.loc 1 123 0
 1006 0590 63E0      		ldi r22,lo8(3)
 1007 0592 0E94 0000 		call bmp280_read_regs
 1008               	.LVL85:
 124:bmp280.c      ****     return (int32_t)(((uint32_t)g_buff[0]<<12) | (g_buff[1]<<4) | (g_buff[2] >>4));
 1009               		.loc 1 124 0
 1010 0596 2091 0000 		lds r18,g_buff+2
 1011 059a 2295      		swap r18
 1012 059c 2F70      		andi r18,lo8(15)
 1013 059e 6091 0000 		lds r22,g_buff
 1014 05a2 70E0      		ldi r23,0
 1015 05a4 80E0      		ldi r24,0
 1016 05a6 90E0      		ldi r25,0
 1017 05a8 5CE0      		ldi r21,12
 1018               		1:
 1019 05aa 660F      		lsl r22
 1020 05ac 771F      		rol r23
 1021 05ae 881F      		rol r24
 1022 05b0 991F      		rol r25
 1023 05b2 5A95      		dec r21
 1024 05b4 01F4      		brne 1b
 1025 05b6 622B      		or r22,r18
 1026 05b8 0091 0000 		lds r16,g_buff+1
 1027 05bc 20E1      		ldi r18,lo8(16)
 1028 05be 029F      		mul r16,r18
 1029 05c0 8001      		movw r16,r0
 1030 05c2 1124      		clr __zero_reg__
 1031 05c4 2227      		clr r18
 1032 05c6 17FD      		sbrc r17,7
 1033 05c8 2095      		com r18
 1034 05ca 322F      		mov r19,r18
 1035 05cc 602B      		or r22,r16
 1036 05ce 712B      		or r23,r17
 1037 05d0 822B      		or r24,r18
 1038 05d2 932B      		or r25,r19
 1039               	/* epilogue start */
 125:bmp280.c      **** }
 1040               		.loc 1 125 0
 1041 05d4 1F91      		pop r17
 1042 05d6 0F91      		pop r16
 1043 05d8 0895      		ret
 1044               		.cfi_endproc
 1045               	.LFE9:
 1046               		.size	read_20bit_reg, .-read_20bit_reg
GAS LISTING /var/folders/7l/9pmsqbq54pd4f14gcz60xhbh0000gn/T//ccPQH7Rh.s 			page 24


 1047               	.global	bmp280_get_temp
 1048               		.type	bmp280_get_temp, @function
 1049               	bmp280_get_temp:
 1050               	.LFB12:
 174:bmp280.c      **** int32_t bmp280_get_temp(void){
 1051               		.loc 1 174 0
 1052               		.cfi_startproc
 1053               	/* prologue: function */
 1054               	/* frame size = 0 */
 1055               	/* stack size = 0 */
 1056               	.L__stack_usage = 0
 177:bmp280.c      ****     adc_T = read_20bit_reg(BMP280_REG_TEMP_MSB);
 1057               		.loc 1 177 0
 1058 05da 8AEF      		ldi r24,lo8(-6)
 1059 05dc 0E94 0000 		call read_20bit_reg
 1060               	.LVL86:
 178:bmp280.c      ****     return compute_temp(adc_T);
 1061               		.loc 1 178 0
 1062 05e0 0C94 0000 		jmp compute_temp
 1063               	.LVL87:
 1064               		.cfi_endproc
 1065               	.LFE12:
 1066               		.size	bmp280_get_temp, .-bmp280_get_temp
 1067               	.global	bmp280_get_pressure
 1068               		.type	bmp280_get_pressure, @function
 1069               	bmp280_get_pressure:
 1070               	.LFB13:
 184:bmp280.c      **** int32_t bmp280_get_pressure(void){
 1071               		.loc 1 184 0
 1072               		.cfi_startproc
 1073               	/* prologue: function */
 1074               	/* frame size = 0 */
 1075               	/* stack size = 0 */
 1076               	.L__stack_usage = 0
 187:bmp280.c      ****     bmp280_get_temp();
 1077               		.loc 1 187 0
 1078 05e4 0E94 0000 		call bmp280_get_temp
 1079               	.LVL88:
 188:bmp280.c      ****     adc_P = read_20bit_reg(BMP280_REG_PRESS_MSB);
 1080               		.loc 1 188 0
 1081 05e8 87EF      		ldi r24,lo8(-9)
 1082 05ea 0E94 0000 		call read_20bit_reg
 1083               	.LVL89:
 189:bmp280.c      ****     return compute_pressure(adc_P);
 1084               		.loc 1 189 0
 1085 05ee 0C94 0000 		jmp compute_pressure
 1086               	.LVL90:
 1087               		.cfi_endproc
 1088               	.LFE13:
 1089               		.size	bmp280_get_pressure, .-bmp280_get_pressure
 1090               	.global	bmp280_get_temp_press
 1091               		.type	bmp280_get_temp_press, @function
 1092               	bmp280_get_temp_press:
 1093               	.LFB14:
 192:bmp280.c      **** void bmp280_get_temp_press(int32_t *t, int32_t *p){
 1094               		.loc 1 192 0
 1095               		.cfi_startproc
GAS LISTING /var/folders/7l/9pmsqbq54pd4f14gcz60xhbh0000gn/T//ccPQH7Rh.s 			page 25


 1096               	.LVL91:
 1097 05f2 8F92      		push r8
 1098               	.LCFI35:
 1099               		.cfi_def_cfa_offset 3
 1100               		.cfi_offset 8, -2
 1101 05f4 9F92      		push r9
 1102               	.LCFI36:
 1103               		.cfi_def_cfa_offset 4
 1104               		.cfi_offset 9, -3
 1105 05f6 AF92      		push r10
 1106               	.LCFI37:
 1107               		.cfi_def_cfa_offset 5
 1108               		.cfi_offset 10, -4
 1109 05f8 BF92      		push r11
 1110               	.LCFI38:
 1111               		.cfi_def_cfa_offset 6
 1112               		.cfi_offset 11, -5
 1113 05fa CF92      		push r12
 1114               	.LCFI39:
 1115               		.cfi_def_cfa_offset 7
 1116               		.cfi_offset 12, -6
 1117 05fc DF92      		push r13
 1118               	.LCFI40:
 1119               		.cfi_def_cfa_offset 8
 1120               		.cfi_offset 13, -7
 1121 05fe EF92      		push r14
 1122               	.LCFI41:
 1123               		.cfi_def_cfa_offset 9
 1124               		.cfi_offset 14, -8
 1125 0600 FF92      		push r15
 1126               	.LCFI42:
 1127               		.cfi_def_cfa_offset 10
 1128               		.cfi_offset 15, -9
 1129 0602 0F93      		push r16
 1130               	.LCFI43:
 1131               		.cfi_def_cfa_offset 11
 1132               		.cfi_offset 16, -10
 1133 0604 1F93      		push r17
 1134               	.LCFI44:
 1135               		.cfi_def_cfa_offset 12
 1136               		.cfi_offset 17, -11
 1137 0606 CF93      		push r28
 1138               	.LCFI45:
 1139               		.cfi_def_cfa_offset 13
 1140               		.cfi_offset 28, -12
 1141 0608 DF93      		push r29
 1142               	.LCFI46:
 1143               		.cfi_def_cfa_offset 14
 1144               		.cfi_offset 29, -13
 1145               	/* prologue: function */
 1146               	/* frame size = 0 */
 1147               	/* stack size = 12 */
 1148               	.L__stack_usage = 12
 1149 060a 8C01      		movw r16,r24
 1150 060c EB01      		movw r28,r22
 194:bmp280.c      ****     bmp280_read_regs(BMP280_REG_PRESS_MSB, 6);
 1151               		.loc 1 194 0
GAS LISTING /var/folders/7l/9pmsqbq54pd4f14gcz60xhbh0000gn/T//ccPQH7Rh.s 			page 26


 1152 060e 66E0      		ldi r22,lo8(6)
 1153               	.LVL92:
 1154 0610 87EF      		ldi r24,lo8(-9)
 1155               	.LVL93:
 1156 0612 0E94 0000 		call bmp280_read_regs
 1157               	.LVL94:
 195:bmp280.c      ****     adc_P = (int32_t)(((uint32_t)g_buff[0]<<12) | (g_buff[1]<<4) | (g_buff[2] >>4));
 1158               		.loc 1 195 0
 1159 0616 8091 0000 		lds r24,g_buff+2
 1160 061a 8295      		swap r24
 1161 061c 8F70      		andi r24,lo8(15)
 1162 061e C090 0000 		lds r12,g_buff
 1163 0622 D12C      		mov r13,__zero_reg__
 1164 0624 E12C      		mov r14,__zero_reg__
 1165 0626 F12C      		mov r15,__zero_reg__
 1166 0628 6CE0      		ldi r22,12
 1167               		1:
 1168 062a CC0C      		lsl r12
 1169 062c DD1C      		rol r13
 1170 062e EE1C      		rol r14
 1171 0630 FF1C      		rol r15
 1172 0632 6A95      		dec r22
 1173 0634 01F4      		brne 1b
 1174 0636 C82A      		or r12,r24
 1175 0638 8091 0000 		lds r24,g_buff+1
 1176 063c 20E1      		ldi r18,lo8(16)
 1177 063e 829F      		mul r24,r18
 1178 0640 C001      		movw r24,r0
 1179 0642 1124      		clr __zero_reg__
 1180 0644 AA27      		clr r26
 1181 0646 97FD      		sbrc r25,7
 1182 0648 A095      		com r26
 1183 064a BA2F      		mov r27,r26
 1184 064c C82A      		or r12,r24
 1185 064e D92A      		or r13,r25
 1186 0650 EA2A      		or r14,r26
 1187 0652 FB2A      		or r15,r27
 1188               	.LVL95:
 196:bmp280.c      ****     adc_T = (int32_t)(((uint32_t)g_buff[3]<<12) | (g_buff[4]<<4) | (g_buff[5] >>4));
 1189               		.loc 1 196 0
 1190 0654 2091 0000 		lds r18,g_buff+5
 1191 0658 2295      		swap r18
 1192 065a 2F70      		andi r18,lo8(15)
 1193 065c 6091 0000 		lds r22,g_buff+3
 1194 0660 70E0      		ldi r23,0
 1195 0662 80E0      		ldi r24,0
 1196 0664 90E0      		ldi r25,0
 1197 0666 ECE0      		ldi r30,12
 1198               		1:
 1199 0668 660F      		lsl r22
 1200 066a 771F      		rol r23
 1201 066c 881F      		rol r24
 1202 066e 991F      		rol r25
 1203 0670 EA95      		dec r30
 1204 0672 01F4      		brne 1b
 1205 0674 622B      		or r22,r18
 1206 0676 8090 0000 		lds r8,g_buff+4
GAS LISTING /var/folders/7l/9pmsqbq54pd4f14gcz60xhbh0000gn/T//ccPQH7Rh.s 			page 27


 1207 067a E0E1      		ldi r30,lo8(16)
 1208 067c 8E9E      		mul r8,r30
 1209 067e 4001      		movw r8,r0
 1210 0680 1124      		clr __zero_reg__
 1211 0682 AA24      		clr r10
 1212 0684 97FC      		sbrc r9,7
 1213 0686 A094      		com r10
 1214 0688 BA2C      		mov r11,r10
 1215 068a 6829      		or r22,r8
 1216 068c 7929      		or r23,r9
 1217 068e 8A29      		or r24,r10
 1218 0690 9B29      		or r25,r11
 198:bmp280.c      ****     *t = compute_temp(adc_T);
 1219               		.loc 1 198 0
 1220 0692 0E94 0000 		call compute_temp
 1221               	.LVL96:
 1222 0696 F801      		movw r30,r16
 1223 0698 6083      		st Z,r22
 1224 069a 7183      		std Z+1,r23
 1225 069c 8283      		std Z+2,r24
 1226 069e 9383      		std Z+3,r25
 199:bmp280.c      ****     *p = compute_pressure(adc_P);
 1227               		.loc 1 199 0
 1228 06a0 C701      		movw r24,r14
 1229 06a2 B601      		movw r22,r12
 1230 06a4 0E94 0000 		call compute_pressure
 1231               	.LVL97:
 1232 06a8 6883      		st Y,r22
 1233 06aa 7983      		std Y+1,r23
 1234 06ac 8A83      		std Y+2,r24
 1235 06ae 9B83      		std Y+3,r25
 1236               	/* epilogue start */
 200:bmp280.c      **** }
 1237               		.loc 1 200 0
 1238 06b0 DF91      		pop r29
 1239 06b2 CF91      		pop r28
 1240               	.LVL98:
 1241 06b4 1F91      		pop r17
 1242 06b6 0F91      		pop r16
 1243               	.LVL99:
 1244 06b8 FF90      		pop r15
 1245 06ba EF90      		pop r14
 1246 06bc DF90      		pop r13
 1247 06be CF90      		pop r12
 1248               	.LVL100:
 1249 06c0 BF90      		pop r11
 1250 06c2 AF90      		pop r10
 1251 06c4 9F90      		pop r9
 1252 06c6 8F90      		pop r8
 1253 06c8 0895      		ret
 1254               		.cfi_endproc
 1255               	.LFE14:
 1256               		.size	bmp280_get_temp_press, .-bmp280_get_temp_press
 1257               	.global	bmp280_write_reg
 1258               		.type	bmp280_write_reg, @function
 1259               	bmp280_write_reg:
 1260               	.LFB16:
GAS LISTING /var/folders/7l/9pmsqbq54pd4f14gcz60xhbh0000gn/T//ccPQH7Rh.s 			page 28


 218:bmp280.c      **** 
 219:bmp280.c      **** 
 220:bmp280.c      **** /* bmp280_write_reg
 221:bmp280.c      ****  * Writes a register at addr
 222:bmp280.c      ****  */
 223:bmp280.c      **** int8_t bmp280_write_reg(uint8_t addr, uint8_t val)
 224:bmp280.c      **** {
 1261               		.loc 1 224 0
 1262               		.cfi_startproc
 1263               	.LVL101:
 1264               	/* prologue: function */
 1265               	/* frame size = 0 */
 1266               	/* stack size = 0 */
 1267               	.L__stack_usage = 0
 225:bmp280.c      ****     g_buff[0] = addr;
 1268               		.loc 1 225 0
 1269 06ca 8093 0000 		sts g_buff,r24
 226:bmp280.c      ****     g_buff[1] = val;
 1270               		.loc 1 226 0
 1271 06ce 6093 0000 		sts g_buff+1,r22
 227:bmp280.c      ****     return i2cMasterSend(g_dev_addr, 2, g_buff);
 1272               		.loc 1 227 0
 1273 06d2 40E0      		ldi r20,lo8(g_buff)
 1274 06d4 50E0      		ldi r21,hi8(g_buff)
 1275 06d6 62E0      		ldi r22,lo8(2)
 1276               	.LVL102:
 1277 06d8 8091 0000 		lds r24,g_dev_addr
 1278               	.LVL103:
 1279 06dc 0C94 0000 		jmp i2cMasterSend
 1280               	.LVL104:
 1281               		.cfi_endproc
 1282               	.LFE16:
 1283               		.size	bmp280_write_reg, .-bmp280_write_reg
 1284               	.global	bmp280_init
 1285               		.type	bmp280_init, @function
 1286               	bmp280_init:
 1287               	.LFB6:
  42:bmp280.c      **** {
 1288               		.loc 1 42 0
 1289               		.cfi_startproc
 1290               	/* prologue: function */
 1291               	/* frame size = 0 */
 1292               	/* stack size = 0 */
 1293               	.L__stack_usage = 0
 1294               	.LVL105:
  44:bmp280.c      ****     g_dev_addr = BMP280_ADDR<<1;
 1295               		.loc 1 44 0
 1296 06e0 8CEE      		ldi r24,lo8(-20)
 1297 06e2 8093 0000 		sts g_dev_addr,r24
  46:bmp280.c      ****     retval = bmp280_write_reg(BMP280_REG_RESET, BMP280_RESET);
 1298               		.loc 1 46 0
 1299 06e6 66EB      		ldi r22,lo8(-74)
 1300 06e8 80EE      		ldi r24,lo8(-32)
 1301 06ea 0E94 0000 		call bmp280_write_reg
 1302               	.LVL106:
  47:bmp280.c      ****     if(retval != I2C_OK) return retval;
 1303               		.loc 1 47 0
GAS LISTING /var/folders/7l/9pmsqbq54pd4f14gcz60xhbh0000gn/T//ccPQH7Rh.s 			page 29


 1304 06ee 8111      		cpse r24,__zero_reg__
 1305 06f0 00C0      		rjmp .L20
 1306               	.LVL107:
 1307               	.LBB10:
 1308               	.LBB11:
 1309               		.file 2 "/usr/local/CrossPack-AVR-20131216/avr/include/util/delay.h"
   1:/usr/local/CrossPack-AVR-20131216/avr/include/util/delay.h **** /* Copyright (c) 2002, Marek Michalkiewicz
   2:/usr/local/CrossPack-AVR-20131216/avr/include/util/delay.h ****    Copyright (c) 2004,2005,2007 Joerg Wunsch
   3:/usr/local/CrossPack-AVR-20131216/avr/include/util/delay.h ****    Copyright (c) 2007  Florin-Viorel Petrov
   4:/usr/local/CrossPack-AVR-20131216/avr/include/util/delay.h ****    All rights reserved.
   5:/usr/local/CrossPack-AVR-20131216/avr/include/util/delay.h **** 
   6:/usr/local/CrossPack-AVR-20131216/avr/include/util/delay.h ****    Redistribution and use in source and binary forms, with or without
   7:/usr/local/CrossPack-AVR-20131216/avr/include/util/delay.h ****    modification, are permitted provided that the following conditions are met:
   8:/usr/local/CrossPack-AVR-20131216/avr/include/util/delay.h **** 
   9:/usr/local/CrossPack-AVR-20131216/avr/include/util/delay.h ****    * Redistributions of source code must retain the above copyright
  10:/usr/local/CrossPack-AVR-20131216/avr/include/util/delay.h ****      notice, this list of conditions and the following disclaimer.
  11:/usr/local/CrossPack-AVR-20131216/avr/include/util/delay.h **** 
  12:/usr/local/CrossPack-AVR-20131216/avr/include/util/delay.h ****    * Redistributions in binary form must reproduce the above copyright
  13:/usr/local/CrossPack-AVR-20131216/avr/include/util/delay.h ****      notice, this list of conditions and the following disclaimer in
  14:/usr/local/CrossPack-AVR-20131216/avr/include/util/delay.h ****      the documentation and/or other materials provided with the
  15:/usr/local/CrossPack-AVR-20131216/avr/include/util/delay.h ****      distribution.
  16:/usr/local/CrossPack-AVR-20131216/avr/include/util/delay.h **** 
  17:/usr/local/CrossPack-AVR-20131216/avr/include/util/delay.h ****    * Neither the name of the copyright holders nor the names of
  18:/usr/local/CrossPack-AVR-20131216/avr/include/util/delay.h ****      contributors may be used to endorse or promote products derived
  19:/usr/local/CrossPack-AVR-20131216/avr/include/util/delay.h ****      from this software without specific prior written permission.
  20:/usr/local/CrossPack-AVR-20131216/avr/include/util/delay.h **** 
  21:/usr/local/CrossPack-AVR-20131216/avr/include/util/delay.h ****   THIS SOFTWARE IS PROVIDED BY THE COPYRIGHT HOLDERS AND CONTRIBUTORS "AS IS"
  22:/usr/local/CrossPack-AVR-20131216/avr/include/util/delay.h ****   AND ANY EXPRESS OR IMPLIED WARRANTIES, INCLUDING, BUT NOT LIMITED TO, THE
  23:/usr/local/CrossPack-AVR-20131216/avr/include/util/delay.h ****   IMPLIED WARRANTIES OF MERCHANTABILITY AND FITNESS FOR A PARTICULAR PURPOSE
  24:/usr/local/CrossPack-AVR-20131216/avr/include/util/delay.h ****   ARE DISCLAIMED. IN NO EVENT SHALL THE COPYRIGHT OWNER OR CONTRIBUTORS BE
  25:/usr/local/CrossPack-AVR-20131216/avr/include/util/delay.h ****   LIABLE FOR ANY DIRECT, INDIRECT, INCIDENTAL, SPECIAL, EXEMPLARY, OR
  26:/usr/local/CrossPack-AVR-20131216/avr/include/util/delay.h ****   CONSEQUENTIAL DAMAGES (INCLUDING, BUT NOT LIMITED TO, PROCUREMENT OF
  27:/usr/local/CrossPack-AVR-20131216/avr/include/util/delay.h ****   SUBSTITUTE GOODS OR SERVICES; LOSS OF USE, DATA, OR PROFITS; OR BUSINESS
  28:/usr/local/CrossPack-AVR-20131216/avr/include/util/delay.h ****   INTERRUPTION) HOWEVER CAUSED AND ON ANY THEORY OF LIABILITY, WHETHER IN
  29:/usr/local/CrossPack-AVR-20131216/avr/include/util/delay.h ****   CONTRACT, STRICT LIABILITY, OR TORT (INCLUDING NEGLIGENCE OR OTHERWISE)
  30:/usr/local/CrossPack-AVR-20131216/avr/include/util/delay.h ****   ARISING IN ANY WAY OUT OF THE USE OF THIS SOFTWARE, EVEN IF ADVISED OF THE
  31:/usr/local/CrossPack-AVR-20131216/avr/include/util/delay.h ****   POSSIBILITY OF SUCH DAMAGE. */
  32:/usr/local/CrossPack-AVR-20131216/avr/include/util/delay.h **** 
  33:/usr/local/CrossPack-AVR-20131216/avr/include/util/delay.h **** /* $Id$ */
  34:/usr/local/CrossPack-AVR-20131216/avr/include/util/delay.h **** 
  35:/usr/local/CrossPack-AVR-20131216/avr/include/util/delay.h **** #ifndef _UTIL_DELAY_H_
  36:/usr/local/CrossPack-AVR-20131216/avr/include/util/delay.h **** #define _UTIL_DELAY_H_ 1
  37:/usr/local/CrossPack-AVR-20131216/avr/include/util/delay.h **** 
  38:/usr/local/CrossPack-AVR-20131216/avr/include/util/delay.h **** #ifndef __HAS_DELAY_CYCLES
  39:/usr/local/CrossPack-AVR-20131216/avr/include/util/delay.h **** #define __HAS_DELAY_CYCLES 1
  40:/usr/local/CrossPack-AVR-20131216/avr/include/util/delay.h **** #endif
  41:/usr/local/CrossPack-AVR-20131216/avr/include/util/delay.h **** 
  42:/usr/local/CrossPack-AVR-20131216/avr/include/util/delay.h **** #include <inttypes.h>
  43:/usr/local/CrossPack-AVR-20131216/avr/include/util/delay.h **** #include <util/delay_basic.h>
  44:/usr/local/CrossPack-AVR-20131216/avr/include/util/delay.h **** #include <math.h>
  45:/usr/local/CrossPack-AVR-20131216/avr/include/util/delay.h **** 
  46:/usr/local/CrossPack-AVR-20131216/avr/include/util/delay.h **** /** \file */
  47:/usr/local/CrossPack-AVR-20131216/avr/include/util/delay.h **** /** \defgroup util_delay <util/delay.h>: Convenience functions for busy-wait delay loops
  48:/usr/local/CrossPack-AVR-20131216/avr/include/util/delay.h ****     \code
  49:/usr/local/CrossPack-AVR-20131216/avr/include/util/delay.h ****     #define F_CPU 1000000UL  // 1 MHz
  50:/usr/local/CrossPack-AVR-20131216/avr/include/util/delay.h ****     //#define F_CPU 14.7456E6
  51:/usr/local/CrossPack-AVR-20131216/avr/include/util/delay.h ****     #include <util/delay.h>
GAS LISTING /var/folders/7l/9pmsqbq54pd4f14gcz60xhbh0000gn/T//ccPQH7Rh.s 			page 30


  52:/usr/local/CrossPack-AVR-20131216/avr/include/util/delay.h ****     \endcode
  53:/usr/local/CrossPack-AVR-20131216/avr/include/util/delay.h **** 
  54:/usr/local/CrossPack-AVR-20131216/avr/include/util/delay.h ****     \note As an alternative method, it is possible to pass the
  55:/usr/local/CrossPack-AVR-20131216/avr/include/util/delay.h ****     F_CPU macro down to the compiler from the Makefile.
  56:/usr/local/CrossPack-AVR-20131216/avr/include/util/delay.h ****     Obviously, in that case, no \c \#define statement should be
  57:/usr/local/CrossPack-AVR-20131216/avr/include/util/delay.h ****     used.
  58:/usr/local/CrossPack-AVR-20131216/avr/include/util/delay.h **** 
  59:/usr/local/CrossPack-AVR-20131216/avr/include/util/delay.h ****     The functions in this header file are wrappers around the basic
  60:/usr/local/CrossPack-AVR-20131216/avr/include/util/delay.h ****     busy-wait functions from <util/delay_basic.h>.  They are meant as
  61:/usr/local/CrossPack-AVR-20131216/avr/include/util/delay.h ****     convenience functions where actual time values can be specified
  62:/usr/local/CrossPack-AVR-20131216/avr/include/util/delay.h ****     rather than a number of cycles to wait for.  The idea behind is
  63:/usr/local/CrossPack-AVR-20131216/avr/include/util/delay.h ****     that compile-time constant expressions will be eliminated by
  64:/usr/local/CrossPack-AVR-20131216/avr/include/util/delay.h ****     compiler optimization so floating-point expressions can be used
  65:/usr/local/CrossPack-AVR-20131216/avr/include/util/delay.h ****     to calculate the number of delay cycles needed based on the CPU
  66:/usr/local/CrossPack-AVR-20131216/avr/include/util/delay.h ****     frequency passed by the macro F_CPU.
  67:/usr/local/CrossPack-AVR-20131216/avr/include/util/delay.h **** 
  68:/usr/local/CrossPack-AVR-20131216/avr/include/util/delay.h ****     \note In order for these functions to work as intended, compiler
  69:/usr/local/CrossPack-AVR-20131216/avr/include/util/delay.h ****     optimizations <em>must</em> be enabled, and the delay time
  70:/usr/local/CrossPack-AVR-20131216/avr/include/util/delay.h ****     <em>must</em> be an expression that is a known constant at
  71:/usr/local/CrossPack-AVR-20131216/avr/include/util/delay.h ****     compile-time.  If these requirements are not met, the resulting
  72:/usr/local/CrossPack-AVR-20131216/avr/include/util/delay.h ****     delay will be much longer (and basically unpredictable), and
  73:/usr/local/CrossPack-AVR-20131216/avr/include/util/delay.h ****     applications that otherwise do not use floating-point calculations
  74:/usr/local/CrossPack-AVR-20131216/avr/include/util/delay.h ****     will experience severe code bloat by the floating-point library
  75:/usr/local/CrossPack-AVR-20131216/avr/include/util/delay.h ****     routines linked into the application.
  76:/usr/local/CrossPack-AVR-20131216/avr/include/util/delay.h **** 
  77:/usr/local/CrossPack-AVR-20131216/avr/include/util/delay.h ****     The functions available allow the specification of microsecond, and
  78:/usr/local/CrossPack-AVR-20131216/avr/include/util/delay.h ****     millisecond delays directly, using the application-supplied macro
  79:/usr/local/CrossPack-AVR-20131216/avr/include/util/delay.h ****     F_CPU as the CPU clock frequency (in Hertz).
  80:/usr/local/CrossPack-AVR-20131216/avr/include/util/delay.h **** 
  81:/usr/local/CrossPack-AVR-20131216/avr/include/util/delay.h **** */
  82:/usr/local/CrossPack-AVR-20131216/avr/include/util/delay.h **** 
  83:/usr/local/CrossPack-AVR-20131216/avr/include/util/delay.h **** #if !defined(__DOXYGEN__)
  84:/usr/local/CrossPack-AVR-20131216/avr/include/util/delay.h **** static inline void _delay_us(double __us) __attribute__((always_inline));
  85:/usr/local/CrossPack-AVR-20131216/avr/include/util/delay.h **** static inline void _delay_ms(double __ms) __attribute__((always_inline));
  86:/usr/local/CrossPack-AVR-20131216/avr/include/util/delay.h **** #endif
  87:/usr/local/CrossPack-AVR-20131216/avr/include/util/delay.h **** 
  88:/usr/local/CrossPack-AVR-20131216/avr/include/util/delay.h **** #ifndef F_CPU
  89:/usr/local/CrossPack-AVR-20131216/avr/include/util/delay.h **** /* prevent compiler error by supplying a default */
  90:/usr/local/CrossPack-AVR-20131216/avr/include/util/delay.h **** # warning "F_CPU not defined for <util/delay.h>"
  91:/usr/local/CrossPack-AVR-20131216/avr/include/util/delay.h **** # define F_CPU 1000000UL
  92:/usr/local/CrossPack-AVR-20131216/avr/include/util/delay.h **** #endif
  93:/usr/local/CrossPack-AVR-20131216/avr/include/util/delay.h **** 
  94:/usr/local/CrossPack-AVR-20131216/avr/include/util/delay.h **** #ifndef __OPTIMIZE__
  95:/usr/local/CrossPack-AVR-20131216/avr/include/util/delay.h **** # warning "Compiler optimizations disabled; functions from <util/delay.h> won't work as designed"
  96:/usr/local/CrossPack-AVR-20131216/avr/include/util/delay.h **** #endif
  97:/usr/local/CrossPack-AVR-20131216/avr/include/util/delay.h **** 
  98:/usr/local/CrossPack-AVR-20131216/avr/include/util/delay.h **** #if __HAS_DELAY_CYCLES && defined(__OPTIMIZE__) && \
  99:/usr/local/CrossPack-AVR-20131216/avr/include/util/delay.h ****   !defined(__DELAY_BACKWARD_COMPATIBLE__) &&	   \
 100:/usr/local/CrossPack-AVR-20131216/avr/include/util/delay.h ****   __STDC_HOSTED__
 101:/usr/local/CrossPack-AVR-20131216/avr/include/util/delay.h **** #  include <math.h>
 102:/usr/local/CrossPack-AVR-20131216/avr/include/util/delay.h **** #endif
 103:/usr/local/CrossPack-AVR-20131216/avr/include/util/delay.h **** 
 104:/usr/local/CrossPack-AVR-20131216/avr/include/util/delay.h **** /**
 105:/usr/local/CrossPack-AVR-20131216/avr/include/util/delay.h ****    \ingroup util_delay
 106:/usr/local/CrossPack-AVR-20131216/avr/include/util/delay.h **** 
 107:/usr/local/CrossPack-AVR-20131216/avr/include/util/delay.h ****    Perform a delay of \c __ms milliseconds, using _delay_loop_2().
 108:/usr/local/CrossPack-AVR-20131216/avr/include/util/delay.h **** 
GAS LISTING /var/folders/7l/9pmsqbq54pd4f14gcz60xhbh0000gn/T//ccPQH7Rh.s 			page 31


 109:/usr/local/CrossPack-AVR-20131216/avr/include/util/delay.h ****    The macro F_CPU is supposed to be defined to a
 110:/usr/local/CrossPack-AVR-20131216/avr/include/util/delay.h ****    constant defining the CPU clock frequency (in Hertz).
 111:/usr/local/CrossPack-AVR-20131216/avr/include/util/delay.h **** 
 112:/usr/local/CrossPack-AVR-20131216/avr/include/util/delay.h ****    The maximal possible delay is 262.14 ms / F_CPU in MHz.
 113:/usr/local/CrossPack-AVR-20131216/avr/include/util/delay.h **** 
 114:/usr/local/CrossPack-AVR-20131216/avr/include/util/delay.h ****    When the user request delay which exceed the maximum possible one,
 115:/usr/local/CrossPack-AVR-20131216/avr/include/util/delay.h ****    _delay_ms() provides a decreased resolution functionality. In this
 116:/usr/local/CrossPack-AVR-20131216/avr/include/util/delay.h ****    mode _delay_ms() will work with a resolution of 1/10 ms, providing
 117:/usr/local/CrossPack-AVR-20131216/avr/include/util/delay.h ****    delays up to 6.5535 seconds (independent from CPU frequency).  The
 118:/usr/local/CrossPack-AVR-20131216/avr/include/util/delay.h ****    user will not be informed about decreased resolution.
 119:/usr/local/CrossPack-AVR-20131216/avr/include/util/delay.h **** 
 120:/usr/local/CrossPack-AVR-20131216/avr/include/util/delay.h ****    If the avr-gcc toolchain has __builtin_avr_delay_cycles(unsigned long)
 121:/usr/local/CrossPack-AVR-20131216/avr/include/util/delay.h ****    support, maximal possible delay is 4294967.295 ms/ F_CPU in MHz. For
 122:/usr/local/CrossPack-AVR-20131216/avr/include/util/delay.h ****    values greater than the maximal possible delay, overflows results in
 123:/usr/local/CrossPack-AVR-20131216/avr/include/util/delay.h ****    no delay i.e., 0ms.
 124:/usr/local/CrossPack-AVR-20131216/avr/include/util/delay.h **** 
 125:/usr/local/CrossPack-AVR-20131216/avr/include/util/delay.h ****    Conversion of __us into clock cycles may not always result in integer.
 126:/usr/local/CrossPack-AVR-20131216/avr/include/util/delay.h ****    By default, the clock cycles rounded up to next integer. This ensures that
 127:/usr/local/CrossPack-AVR-20131216/avr/include/util/delay.h ****    the user gets atleast __us microseconds of delay.
 128:/usr/local/CrossPack-AVR-20131216/avr/include/util/delay.h **** 
 129:/usr/local/CrossPack-AVR-20131216/avr/include/util/delay.h ****    Alternatively, user can define __DELAY_ROUND_DOWN__ and __DELAY_ROUND_CLOSEST__
 130:/usr/local/CrossPack-AVR-20131216/avr/include/util/delay.h ****    to round down and round to closest integer.
 131:/usr/local/CrossPack-AVR-20131216/avr/include/util/delay.h **** 
 132:/usr/local/CrossPack-AVR-20131216/avr/include/util/delay.h ****    Note: The new implementation of _delay_ms(double __ms) with 
 133:/usr/local/CrossPack-AVR-20131216/avr/include/util/delay.h ****     __builtin_avr_delay_cycles(unsigned long) support is not backward compatible. 
 134:/usr/local/CrossPack-AVR-20131216/avr/include/util/delay.h ****    User can define __DELAY_BACKWARD_COMPATIBLE__ to get a backward compatible delay.
 135:/usr/local/CrossPack-AVR-20131216/avr/include/util/delay.h ****    Also, the backward compatible
 136:/usr/local/CrossPack-AVR-20131216/avr/include/util/delay.h ****    algorithm will be chosen if the code is compiled in a <em>freestanding
 137:/usr/local/CrossPack-AVR-20131216/avr/include/util/delay.h ****    environment</em> (GCC option \c -ffreestanding), as the math functions
 138:/usr/local/CrossPack-AVR-20131216/avr/include/util/delay.h ****    required for rounding are not available to the compiler then.
 139:/usr/local/CrossPack-AVR-20131216/avr/include/util/delay.h **** 
 140:/usr/local/CrossPack-AVR-20131216/avr/include/util/delay.h ****  */
 141:/usr/local/CrossPack-AVR-20131216/avr/include/util/delay.h **** void
 142:/usr/local/CrossPack-AVR-20131216/avr/include/util/delay.h **** _delay_ms(double __ms)
 143:/usr/local/CrossPack-AVR-20131216/avr/include/util/delay.h **** {
 144:/usr/local/CrossPack-AVR-20131216/avr/include/util/delay.h **** 	double __tmp ; 
 145:/usr/local/CrossPack-AVR-20131216/avr/include/util/delay.h **** #if __HAS_DELAY_CYCLES && defined(__OPTIMIZE__) && \
 146:/usr/local/CrossPack-AVR-20131216/avr/include/util/delay.h ****   !defined(__DELAY_BACKWARD_COMPATIBLE__) &&	   \
 147:/usr/local/CrossPack-AVR-20131216/avr/include/util/delay.h ****   __STDC_HOSTED__
 148:/usr/local/CrossPack-AVR-20131216/avr/include/util/delay.h **** 	uint32_t __ticks_dc;
 149:/usr/local/CrossPack-AVR-20131216/avr/include/util/delay.h **** 	extern void __builtin_avr_delay_cycles(unsigned long);
 150:/usr/local/CrossPack-AVR-20131216/avr/include/util/delay.h **** 	__tmp = ((F_CPU) / 1e3) * __ms;
 151:/usr/local/CrossPack-AVR-20131216/avr/include/util/delay.h **** 
 152:/usr/local/CrossPack-AVR-20131216/avr/include/util/delay.h **** 	#if defined(__DELAY_ROUND_DOWN__)
 153:/usr/local/CrossPack-AVR-20131216/avr/include/util/delay.h **** 		__ticks_dc = (uint32_t)fabs(__tmp);
 154:/usr/local/CrossPack-AVR-20131216/avr/include/util/delay.h **** 
 155:/usr/local/CrossPack-AVR-20131216/avr/include/util/delay.h **** 	#elif defined(__DELAY_ROUND_CLOSEST__)
 156:/usr/local/CrossPack-AVR-20131216/avr/include/util/delay.h **** 		__ticks_dc = (uint32_t)(fabs(__tmp)+0.5);
 157:/usr/local/CrossPack-AVR-20131216/avr/include/util/delay.h **** 
 158:/usr/local/CrossPack-AVR-20131216/avr/include/util/delay.h **** 	#else
 159:/usr/local/CrossPack-AVR-20131216/avr/include/util/delay.h **** 		//round up by default
 160:/usr/local/CrossPack-AVR-20131216/avr/include/util/delay.h **** 		__ticks_dc = (uint32_t)(ceil(fabs(__tmp)));
 161:/usr/local/CrossPack-AVR-20131216/avr/include/util/delay.h **** 	#endif
 162:/usr/local/CrossPack-AVR-20131216/avr/include/util/delay.h **** 
 163:/usr/local/CrossPack-AVR-20131216/avr/include/util/delay.h **** 	__builtin_avr_delay_cycles(__ticks_dc);
 1310               		.loc 2 163 0
 1311 06f2 8FE3      		ldi r24,lo8(-25537)
GAS LISTING /var/folders/7l/9pmsqbq54pd4f14gcz60xhbh0000gn/T//ccPQH7Rh.s 			page 32


 1312 06f4 9CE9      		ldi r25,hi8(-25537)
 1313 06f6 0197      		1: sbiw r24,1
 1314 06f8 01F4      		brne 1b
 1315               	.LVL108:
 1316 06fa 00C0      		rjmp .
 1317 06fc 0000      		nop
 1318               	.LBE11:
 1319               	.LBE10:
  52:bmp280.c      ****     retval = bmp280_load_compensation();
 1320               		.loc 1 52 0
 1321 06fe 0E94 0000 		call bmp280_load_compensation
 1322               	.LVL109:
  53:bmp280.c      ****     if(retval != I2C_OK) return retval;
 1323               		.loc 1 53 0
 1324 0702 8111      		cpse r24,__zero_reg__
 1325 0704 00C0      		rjmp .L20
  55:bmp280.c      ****     retval = bmp280_read_regs(BMP280_REG_ID, 1);
 1326               		.loc 1 55 0
 1327 0706 61E0      		ldi r22,lo8(1)
 1328 0708 80ED      		ldi r24,lo8(-48)
 1329               	.LVL110:
 1330 070a 0E94 0000 		call bmp280_read_regs
 1331               	.LVL111:
  56:bmp280.c      ****     if(retval != I2C_OK) return retval;
 1332               		.loc 1 56 0
 1333 070e 8111      		cpse r24,__zero_reg__
 1334 0710 00C0      		rjmp .L20
  58:bmp280.c      ****     retval = bmp280_write_reg(BMP280_REG_CONFIG, 
 1335               		.loc 1 58 0
 1336 0712 60E1      		ldi r22,lo8(16)
 1337 0714 85EF      		ldi r24,lo8(-11)
 1338               	.LVL112:
 1339 0716 0E94 0000 		call bmp280_write_reg
 1340               	.LVL113:
  60:bmp280.c      ****     if(retval != I2C_OK) return retval;
 1341               		.loc 1 60 0
 1342 071a 8111      		cpse r24,__zero_reg__
 1343 071c 00C0      		rjmp .L20
  62:bmp280.c      ****     retval = bmp280_write_reg(BMP280_REG_CTRL_MEAS,
 1344               		.loc 1 62 0
 1345 071e 6FE5      		ldi r22,lo8(95)
 1346 0720 84EF      		ldi r24,lo8(-12)
 1347               	.LVL114:
 1348 0722 0E94 0000 		call bmp280_write_reg
 1349               	.LVL115:
  66:bmp280.c      ****     if(retval != I2C_OK) return retval;
 1350               		.loc 1 66 0
 1351 0726 8111      		cpse r24,__zero_reg__
 1352 0728 00C0      		rjmp .L20
  68:bmp280.c      ****     return g_buff[0];
 1353               		.loc 1 68 0
 1354 072a 8091 0000 		lds r24,g_buff
 1355               	.LVL116:
 1356               	.L20:
  69:bmp280.c      **** }
 1357               		.loc 1 69 0
 1358 072e 0895      		ret
GAS LISTING /var/folders/7l/9pmsqbq54pd4f14gcz60xhbh0000gn/T//ccPQH7Rh.s 			page 33


 1359               		.cfi_endproc
 1360               	.LFE6:
 1361               		.size	bmp280_init, .-bmp280_init
 1362               		.comm	g_comp,24,1
 1363               		.comm	g_tfine,4,1
 1364               		.comm	g_dev_addr,1,1
 1365               		.comm	g_buff,16,1
 1366               	.Letext0:
 1367               		.file 3 "/usr/local/CrossPack-AVR-20131216/avr/include/stdint.h"
 1368               		.file 4 "../../../dev/avrlib/avrlibtypes.h"
 1369               		.file 5 "./i2cconf.h"
 1370               		.file 6 "../../../dev/avrlib/avrlib/i2c.h"