GAS LISTING /var/folders/7l/9pmsqbq54pd4f14gcz60xhbh0000gn/T//ccqTWAch.s 			page 1


   1               		.file	"main.c"
   2               	__SP_H__ = 0x3e
   3               	__SP_L__ = 0x3d
   4               	__SREG__ = 0x3f
   5               	__tmp_reg__ = 0
   6               	__zero_reg__ = 1
   7               		.text
   8               	.Ltext0:
   9               		.cfi_sections	.debug_frame
  10               	.global	usbFunctionSetup
  11               		.type	usbFunctionSetup, @function
  12               	usbFunctionSetup:
  13               	.LFB8:
  14               		.file 1 "main.c"
   1:main.c        **** //
   2:main.c        **** //  LLUA.c
   3:main.c        **** //  LLUA
   4:main.c        **** 
   5:main.c        **** 
   6:main.c        **** #include "global.h"
   7:main.c        **** 
   8:main.c        **** #include <stdint.h>
   9:main.c        **** 
  10:main.c        **** #include <avr/io.h>
  11:main.c        **** #include <avr/wdt.h>
  12:main.c        **** #include <avr/interrupt.h>
  13:main.c        **** #include <util/delay.h>     /* for _delay_ms() */
  14:main.c        **** 
  15:main.c        **** #include <swTimer.h>
  16:main.c        **** 
  17:main.c        **** #include <avr/pgmspace.h>   /* required by usbdrv.h */
  18:main.c        **** #include "usbdrv.h"
  19:main.c        **** #include "oddebug.h"        /* This is also an example for using debug macros */
  20:main.c        **** #include "requests.h"       /* The custom request numbers we use */
  21:main.c        **** 
  22:main.c        **** #include "avrlib/i2c.h"
  23:main.c        **** #include "avrlib/buffer.h"
  24:main.c        **** 
  25:main.c        **** #include "bmp280.h"
  26:main.c        **** #include "lis331.h"
  27:main.c        **** #include "lsm303d.h"
  28:main.c        **** #include "serialize.h"
  29:main.c        **** 
  30:main.c        **** // Defines
  31:main.c        **** #define LED_MASK ((1<<LED_RED_PIN) | (1<<LED_GREEN_PIN) | (1<<LED_BLUE_PIN))
  32:main.c        **** #define RED_BLUE_MASK ((1<<LED_RED_PIN) | (1<<LED_BLUE_PIN))
  33:main.c        **** #define TOGGLE_LED(x) PORTD = (PORTD & ~(x)) | (PORTD ^ (x))
  34:main.c        **** 
  35:main.c        **** #define TOTAL_BUFF_LEN (3*STREAM_BUFF_LEN*sizeof(int32_t) + 9*STREAM_BUFF_LEN*sizeof(int16_t))
  36:main.c        **** 
  37:main.c        **** // Constants
  38:main.c        **** 
  39:main.c        **** typedef struct ma16_filt{
  40:main.c        ****     int16_t buff[MA_FILT_LEN];
  41:main.c        ****     uint8_t ind;
  42:main.c        ****     int16_t val;
  43:main.c        **** }ma16_filt_t;
GAS LISTING /var/folders/7l/9pmsqbq54pd4f14gcz60xhbh0000gn/T//ccqTWAch.s 			page 2


  44:main.c        **** 
  45:main.c        **** uint8_t sequence[][2] = {
  46:main.c        **** 	{~(1<<LED_RED_PIN), 10},
  47:main.c        **** 	{~(1<<LED_BLUE_PIN), 10},
  48:main.c        **** 	{(1<<LED_RED_PIN) | (1<<LED_BLUE_PIN) | (1<<LED_GREEN_PIN), 100},
  49:main.c        **** };
  50:main.c        **** 
  51:main.c        **** uint8_t seq_ind, g_i2c_dev_idx;
  52:main.c        **** sw_timer_t led_timer;
  53:main.c        **** sw_timer_t bmp280_timer;
  54:main.c        **** cBuffer g_stream;
  55:main.c        **** uint8_t g_stream_buff[TOTAL_BUFF_LEN];
  56:main.c        **** uint8_t g_i2c_dev_addrs[4];
  57:main.c        **** 
  58:main.c        **** typedef enum event
  59:main.c        **** {
  60:main.c        **** 	no_event=0,
  61:main.c        **** 	SW_1_press,
  62:main.c        **** 	SW_2_press
  63:main.c        **** }event_t;
  64:main.c        **** 
  65:main.c        **** 
  66:main.c        **** void init(void);
  67:main.c        **** void idle_task(void);
  68:main.c        **** void init_USB(void);
  69:main.c        **** void enumerateI2C(void);
  70:main.c        **** void add_to_filt(ma16_filt_t *filt, int16_t val);
  71:main.c        **** event_t check_events(void);
  72:main.c        **** void jump_to_bootloader(void);
  73:main.c        **** 
  74:main.c        **** int main (void) 
  75:main.c        **** {
  76:main.c        **** 	event_t ev;
  77:main.c        **** 	init();
  78:main.c        **** 	while(1)
  79:main.c        **** 	{
  80:main.c        **** 		while((ev = check_events()))
  81:main.c        **** 		{
  82:main.c        **** 			switch(ev)
  83:main.c        **** 			{
  84:main.c        **** 				case no_event:
  85:main.c        **** 					break;
  86:main.c        **** 				case SW_1_press:
  87:main.c        ****                     TOGGLE_LED(1<<LED_GREEN_PIN);
  88:main.c        **** 					break;
  89:main.c        **** 				case SW_2_press:
  90:main.c        **** 					jump_to_bootloader();
  91:main.c        **** 					break;
  92:main.c        **** 				default:
  93:main.c        **** 					break;
  94:main.c        **** 			}
  95:main.c        **** 		}
  96:main.c        ****         wdt_reset();
  97:main.c        ****         usbPoll();
  98:main.c        **** 		idle_task();
  99:main.c        **** 	}
 100:main.c        **** 	return 0;
GAS LISTING /var/folders/7l/9pmsqbq54pd4f14gcz60xhbh0000gn/T//ccqTWAch.s 			page 3


 101:main.c        **** }
 102:main.c        **** 
 103:main.c        **** 
 104:main.c        **** usbMsgLen_t usbFunctionSetup(uchar data[8])
 105:main.c        **** {
  15               		.loc 1 105 0
  16               		.cfi_startproc
  17               	.LVL0:
  18               	/* prologue: function */
  19               	/* frame size = 0 */
  20               	/* stack size = 0 */
  21               	.L__stack_usage = 0
  22 0000 FC01      		movw r30,r24
  23               	.LVL1:
 106:main.c        ****     usbRequest_t    *rq = (void *)data;
 107:main.c        ****     static uchar    dataBuffer[TOTAL_BUFF_LEN];  /* buffer must stay valid when usbFunctionSetup re
 108:main.c        ****     static uint8_t i;
 109:main.c        ****     static int16_t temp;
 110:main.c        **** 
 111:main.c        ****     if(rq->bRequest == CUSTOM_RQ_ECHO){ /* echo -- used for reliability tests */
  24               		.loc 1 111 0
  25 0002 8181      		ldd r24,Z+1
  26               	.LVL2:
  27 0004 8111      		cpse r24,__zero_reg__
  28 0006 00C0      		rjmp .L2
 112:main.c        ****         dataBuffer[0] = rq->wValue.bytes[0];
  29               		.loc 1 112 0
  30 0008 8281      		ldd r24,Z+2
  31 000a 8093 0000 		sts dataBuffer.2047,r24
 113:main.c        ****         dataBuffer[1] = rq->wValue.bytes[1];
  32               		.loc 1 113 0
  33 000e 8381      		ldd r24,Z+3
  34 0010 8093 0000 		sts dataBuffer.2047+1,r24
 114:main.c        ****         dataBuffer[2] = rq->wIndex.bytes[0];
  35               		.loc 1 114 0
  36 0014 8481      		ldd r24,Z+4
  37 0016 8093 0000 		sts dataBuffer.2047+2,r24
 115:main.c        ****         dataBuffer[3] = rq->wIndex.bytes[1];
  38               		.loc 1 115 0
  39 001a 8581      		ldd r24,Z+5
  40 001c 8093 0000 		sts dataBuffer.2047+3,r24
 116:main.c        ****         usbMsgPtr = dataBuffer;         /* tell the driver which data to return */
  41               		.loc 1 116 0
  42 0020 80E0      		ldi r24,lo8(dataBuffer.2047)
  43 0022 90E0      		ldi r25,hi8(dataBuffer.2047)
  44 0024 9093 0000 		sts usbMsgPtr+1,r25
  45 0028 8093 0000 		sts usbMsgPtr,r24
 117:main.c        ****         return 4;
  46               		.loc 1 117 0
  47 002c 84E0      		ldi r24,lo8(4)
  48 002e 0895      		ret
  49               	.L2:
 118:main.c        ****     }else if(rq->bRequest == CUSTOM_RQ_SET_STATUS){
  50               		.loc 1 118 0
  51 0030 8130      		cpi r24,lo8(1)
  52 0032 01F4      		brne .L4
 119:main.c        ****         if(rq->wValue.bytes[0] & 1){    /* set LED */
GAS LISTING /var/folders/7l/9pmsqbq54pd4f14gcz60xhbh0000gn/T//ccqTWAch.s 			page 4


  53               		.loc 1 119 0
  54 0034 9281      		ldd r25,Z+2
  55 0036 892F      		mov r24,r25
  56 0038 8170      		andi r24,lo8(1)
  57 003a 90FF      		sbrs r25,0
  58 003c 00C0      		rjmp .L5
 120:main.c        ****             PORTD &= ~(1<<LED_GREEN_PIN);
  59               		.loc 1 120 0
  60 003e 5D98      		cbi 0xb,5
  61 0040 00C0      		rjmp .L9
  62               	.L5:
 121:main.c        ****         }else{                          /* clear LED */
 122:main.c        ****             PORTD |= (1<<LED_GREEN_PIN);
  63               		.loc 1 122 0
  64 0042 5D9A      		sbi 0xb,5
  65 0044 0895      		ret
  66               	.L4:
 123:main.c        ****         }
 124:main.c        ****     }else if(rq->bRequest == CUSTOM_RQ_GET_STATUS){
  67               		.loc 1 124 0
  68 0046 8230      		cpi r24,lo8(2)
  69 0048 01F4      		brne .L6
 125:main.c        ****         dataBuffer[0] = ((PORTD & (1<<LED_GREEN_PIN)) != 0);
  70               		.loc 1 125 0
  71 004a 8BB1      		in r24,0xb
  72 004c 85FB      		bst r24,5
  73 004e 8827      		clr r24
  74 0050 80F9      		bld r24,0
  75 0052 8093 0000 		sts dataBuffer.2047,r24
 126:main.c        ****         usbMsgPtr = dataBuffer;         /* tell the driver which data to return */
  76               		.loc 1 126 0
  77 0056 80E0      		ldi r24,lo8(dataBuffer.2047)
  78 0058 90E0      		ldi r25,hi8(dataBuffer.2047)
  79 005a 9093 0000 		sts usbMsgPtr+1,r25
  80 005e 8093 0000 		sts usbMsgPtr,r24
 127:main.c        ****         return 1;                       /* tell the driver to send 1 byte */
  81               		.loc 1 127 0
  82 0062 81E0      		ldi r24,lo8(1)
  83 0064 0895      		ret
  84               	.L6:
 128:main.c        ****     }
 129:main.c        ****     else if(rq->bRequest == CUSTOM_RQ_GET_DATA){
  85               		.loc 1 129 0
  86 0066 8330      		cpi r24,lo8(3)
  87 0068 01F4      		brne .L9
 130:main.c        ****         for(i=0; i<TOTAL_BUFF_LEN; i++)
  88               		.loc 1 130 0
  89 006a 1092 0000 		sts i.2048,__zero_reg__
  90               	.LVL3:
  91               	.L8:
 131:main.c        ****         {
 132:main.c        ****             temp = bufferGetFromFront(&g_stream);
  92               		.loc 1 132 0
  93 006e 80E0      		ldi r24,lo8(g_stream)
  94 0070 90E0      		ldi r25,hi8(g_stream)
  95 0072 0E94 0000 		call bufferGetFromFront
  96               	.LVL4:
GAS LISTING /var/folders/7l/9pmsqbq54pd4f14gcz60xhbh0000gn/T//ccqTWAch.s 			page 5


  97 0076 9093 0000 		sts temp.2049+1,r25
  98 007a 8093 0000 		sts temp.2049,r24
  99 007e 4091 0000 		lds r20,i.2048
 133:main.c        ****             if(temp >= 0){
 100               		.loc 1 133 0
 101 0082 97FD      		sbrc r25,7
 102 0084 00C0      		rjmp .L7
 134:main.c        ****                 dataBuffer[i] = temp;
 103               		.loc 1 134 0
 104 0086 E42F      		mov r30,r20
 105 0088 F0E0      		ldi r31,0
 106 008a E050      		subi r30,lo8(-(dataBuffer.2047))
 107 008c F040      		sbci r31,hi8(-(dataBuffer.2047))
 108 008e 8083      		st Z,r24
 130:main.c        ****         for(i=0; i<TOTAL_BUFF_LEN; i++)
 109               		.loc 1 130 0
 110 0090 4F5F      		subi r20,lo8(-(1))
 111 0092 4093 0000 		sts i.2048,r20
 135:main.c        ****             }
 136:main.c        ****             else
 137:main.c        ****                 break;
 138:main.c        ****         }
 112               		.loc 1 138 0
 113 0096 00C0      		rjmp .L8
 114               	.L7:
 139:main.c        ****         usbMsgPtr = dataBuffer;
 115               		.loc 1 139 0
 116 0098 20E0      		ldi r18,lo8(dataBuffer.2047)
 117 009a 30E0      		ldi r19,hi8(dataBuffer.2047)
 118 009c 3093 0000 		sts usbMsgPtr+1,r19
 119 00a0 2093 0000 		sts usbMsgPtr,r18
 140:main.c        ****         return i+1;
 120               		.loc 1 140 0
 121 00a4 81E0      		ldi r24,lo8(1)
 122 00a6 840F      		add r24,r20
 123 00a8 0895      		ret
 124               	.LVL5:
 125               	.L9:
 141:main.c        ****     }
 142:main.c        ****     return 0;   /* default for not implemented requests: return no data back to host */
 126               		.loc 1 142 0
 127 00aa 80E0      		ldi r24,0
 143:main.c        **** }
 128               		.loc 1 143 0
 129 00ac 0895      		ret
 130               		.cfi_endproc
 131               	.LFE8:
 132               		.size	usbFunctionSetup, .-usbFunctionSetup
 133               	.global	init_USB
 134               		.type	init_USB, @function
 135               	init_USB:
 136               	.LFB10:
 144:main.c        **** 
 145:main.c        **** void init(void)
 146:main.c        **** {
 147:main.c        ****     init_USB();
 148:main.c        **** 
GAS LISTING /var/folders/7l/9pmsqbq54pd4f14gcz60xhbh0000gn/T//ccqTWAch.s 			page 6


 149:main.c        **** 	swTimer_init();
 150:main.c        **** 	DDRD |= LED_MASK;
 151:main.c        **** 	PORTD |= LED_MASK | (1<<SW_2_PIN);
 152:main.c        **** 	PORTB |= (1<<SW_1_PIN);
 153:main.c        **** 
 154:main.c        ****     EXTINT_DDR &= (~EXTINT_LIS331_PIN) & (~EXTINT_LSM303_PIN);
 155:main.c        **** 
 156:main.c        ****     I2C_DDR &= (~I2C_SCL) & (~I2C_SDA);
 157:main.c        ****     I2C_PORT |= I2C_SCL | I2C_SDA;
 158:main.c        ****     i2cReset(); 
 159:main.c        ****     i2cSetBitrate(400);
 160:main.c        ****     enumerateI2C();
 161:main.c        **** 
 162:main.c        ****     bmp280_init();
 163:main.c        ****     lis331_init();
 164:main.c        ****     lsm303_init();
 165:main.c        ****     
 166:main.c        ****     bufferInit(&g_stream, g_stream_buff, TOTAL_BUFF_LEN);
 167:main.c        **** 
 168:main.c        ****     sei();       // THis already happens in swTimer_init() but jsut in case....
 169:main.c        **** 
 170:main.c        ****     wdt_enable(WDTO_1S);
 171:main.c        **** 
 172:main.c        **** 	swTimer_set(&led_timer, 100);
 173:main.c        **** 	swTimer_start(&led_timer);
 174:main.c        **** 
 175:main.c        ****     swTimer_set(&bmp280_timer, 2);
 176:main.c        ****     swTimer_start(&bmp280_timer);
 177:main.c        **** }
 178:main.c        **** 
 179:main.c        **** void init_USB(void)
 180:main.c        **** {
 137               		.loc 1 180 0
 138               		.cfi_startproc
 139               	/* prologue: function */
 140               	/* frame size = 0 */
 141               	/* stack size = 0 */
 142               	.L__stack_usage = 0
 181:main.c        ****     uint8_t i;
 182:main.c        ****     usbInit();
 143               		.loc 1 182 0
 144 00ae 0E94 0000 		call usbInit
 145               	.LVL6:
 183:main.c        ****     usbDeviceDisconnect();
 146               		.loc 1 183 0
 147 00b2 529A      		sbi 0xa,2
 148               	.LVL7:
 184:main.c        ****     // Wait 250 ms
 185:main.c        ****     i = 0;
 149               		.loc 1 185 0
 150 00b4 80E0      		ldi r24,0
 151               	.LVL8:
 152               	.L12:
 186:main.c        ****     while(--i){
 153               		.loc 1 186 0 discriminator 1
 154 00b6 8150      		subi r24,lo8(-(-1))
 155               	.LVL9:
GAS LISTING /var/folders/7l/9pmsqbq54pd4f14gcz60xhbh0000gn/T//ccqTWAch.s 			page 7


 156 00b8 01F0      		breq .L14
 187:main.c        ****         wdt_reset();
 157               		.loc 1 187 0
 158               	/* #APP */
 159               	 ;  187 "main.c" 1
 160 00ba A895      		wdr
 161               	 ;  0 "" 2
 162               	.LVL10:
 163               	/* #NOAPP */
 164               	.LBB6:
 165               	.LBB7:
 166               		.file 2 "/usr/local/CrossPack-AVR-20131216/avr/include/util/delay.h"
   1:/usr/local/CrossPack-AVR-20131216/avr/include/util/delay.h **** /* Copyright (c) 2002, Marek Michalkiewicz
   2:/usr/local/CrossPack-AVR-20131216/avr/include/util/delay.h ****    Copyright (c) 2004,2005,2007 Joerg Wunsch
   3:/usr/local/CrossPack-AVR-20131216/avr/include/util/delay.h ****    Copyright (c) 2007  Florin-Viorel Petrov
   4:/usr/local/CrossPack-AVR-20131216/avr/include/util/delay.h ****    All rights reserved.
   5:/usr/local/CrossPack-AVR-20131216/avr/include/util/delay.h **** 
   6:/usr/local/CrossPack-AVR-20131216/avr/include/util/delay.h ****    Redistribution and use in source and binary forms, with or without
   7:/usr/local/CrossPack-AVR-20131216/avr/include/util/delay.h ****    modification, are permitted provided that the following conditions are met:
   8:/usr/local/CrossPack-AVR-20131216/avr/include/util/delay.h **** 
   9:/usr/local/CrossPack-AVR-20131216/avr/include/util/delay.h ****    * Redistributions of source code must retain the above copyright
  10:/usr/local/CrossPack-AVR-20131216/avr/include/util/delay.h ****      notice, this list of conditions and the following disclaimer.
  11:/usr/local/CrossPack-AVR-20131216/avr/include/util/delay.h **** 
  12:/usr/local/CrossPack-AVR-20131216/avr/include/util/delay.h ****    * Redistributions in binary form must reproduce the above copyright
  13:/usr/local/CrossPack-AVR-20131216/avr/include/util/delay.h ****      notice, this list of conditions and the following disclaimer in
  14:/usr/local/CrossPack-AVR-20131216/avr/include/util/delay.h ****      the documentation and/or other materials provided with the
  15:/usr/local/CrossPack-AVR-20131216/avr/include/util/delay.h ****      distribution.
  16:/usr/local/CrossPack-AVR-20131216/avr/include/util/delay.h **** 
  17:/usr/local/CrossPack-AVR-20131216/avr/include/util/delay.h ****    * Neither the name of the copyright holders nor the names of
  18:/usr/local/CrossPack-AVR-20131216/avr/include/util/delay.h ****      contributors may be used to endorse or promote products derived
  19:/usr/local/CrossPack-AVR-20131216/avr/include/util/delay.h ****      from this software without specific prior written permission.
  20:/usr/local/CrossPack-AVR-20131216/avr/include/util/delay.h **** 
  21:/usr/local/CrossPack-AVR-20131216/avr/include/util/delay.h ****   THIS SOFTWARE IS PROVIDED BY THE COPYRIGHT HOLDERS AND CONTRIBUTORS "AS IS"
  22:/usr/local/CrossPack-AVR-20131216/avr/include/util/delay.h ****   AND ANY EXPRESS OR IMPLIED WARRANTIES, INCLUDING, BUT NOT LIMITED TO, THE
  23:/usr/local/CrossPack-AVR-20131216/avr/include/util/delay.h ****   IMPLIED WARRANTIES OF MERCHANTABILITY AND FITNESS FOR A PARTICULAR PURPOSE
  24:/usr/local/CrossPack-AVR-20131216/avr/include/util/delay.h ****   ARE DISCLAIMED. IN NO EVENT SHALL THE COPYRIGHT OWNER OR CONTRIBUTORS BE
  25:/usr/local/CrossPack-AVR-20131216/avr/include/util/delay.h ****   LIABLE FOR ANY DIRECT, INDIRECT, INCIDENTAL, SPECIAL, EXEMPLARY, OR
  26:/usr/local/CrossPack-AVR-20131216/avr/include/util/delay.h ****   CONSEQUENTIAL DAMAGES (INCLUDING, BUT NOT LIMITED TO, PROCUREMENT OF
  27:/usr/local/CrossPack-AVR-20131216/avr/include/util/delay.h ****   SUBSTITUTE GOODS OR SERVICES; LOSS OF USE, DATA, OR PROFITS; OR BUSINESS
  28:/usr/local/CrossPack-AVR-20131216/avr/include/util/delay.h ****   INTERRUPTION) HOWEVER CAUSED AND ON ANY THEORY OF LIABILITY, WHETHER IN
  29:/usr/local/CrossPack-AVR-20131216/avr/include/util/delay.h ****   CONTRACT, STRICT LIABILITY, OR TORT (INCLUDING NEGLIGENCE OR OTHERWISE)
  30:/usr/local/CrossPack-AVR-20131216/avr/include/util/delay.h ****   ARISING IN ANY WAY OUT OF THE USE OF THIS SOFTWARE, EVEN IF ADVISED OF THE
  31:/usr/local/CrossPack-AVR-20131216/avr/include/util/delay.h ****   POSSIBILITY OF SUCH DAMAGE. */
  32:/usr/local/CrossPack-AVR-20131216/avr/include/util/delay.h **** 
  33:/usr/local/CrossPack-AVR-20131216/avr/include/util/delay.h **** /* $Id$ */
  34:/usr/local/CrossPack-AVR-20131216/avr/include/util/delay.h **** 
  35:/usr/local/CrossPack-AVR-20131216/avr/include/util/delay.h **** #ifndef _UTIL_DELAY_H_
  36:/usr/local/CrossPack-AVR-20131216/avr/include/util/delay.h **** #define _UTIL_DELAY_H_ 1
  37:/usr/local/CrossPack-AVR-20131216/avr/include/util/delay.h **** 
  38:/usr/local/CrossPack-AVR-20131216/avr/include/util/delay.h **** #ifndef __HAS_DELAY_CYCLES
  39:/usr/local/CrossPack-AVR-20131216/avr/include/util/delay.h **** #define __HAS_DELAY_CYCLES 1
  40:/usr/local/CrossPack-AVR-20131216/avr/include/util/delay.h **** #endif
  41:/usr/local/CrossPack-AVR-20131216/avr/include/util/delay.h **** 
  42:/usr/local/CrossPack-AVR-20131216/avr/include/util/delay.h **** #include <inttypes.h>
  43:/usr/local/CrossPack-AVR-20131216/avr/include/util/delay.h **** #include <util/delay_basic.h>
  44:/usr/local/CrossPack-AVR-20131216/avr/include/util/delay.h **** #include <math.h>
  45:/usr/local/CrossPack-AVR-20131216/avr/include/util/delay.h **** 
GAS LISTING /var/folders/7l/9pmsqbq54pd4f14gcz60xhbh0000gn/T//ccqTWAch.s 			page 8


  46:/usr/local/CrossPack-AVR-20131216/avr/include/util/delay.h **** /** \file */
  47:/usr/local/CrossPack-AVR-20131216/avr/include/util/delay.h **** /** \defgroup util_delay <util/delay.h>: Convenience functions for busy-wait delay loops
  48:/usr/local/CrossPack-AVR-20131216/avr/include/util/delay.h ****     \code
  49:/usr/local/CrossPack-AVR-20131216/avr/include/util/delay.h ****     #define F_CPU 1000000UL  // 1 MHz
  50:/usr/local/CrossPack-AVR-20131216/avr/include/util/delay.h ****     //#define F_CPU 14.7456E6
  51:/usr/local/CrossPack-AVR-20131216/avr/include/util/delay.h ****     #include <util/delay.h>
  52:/usr/local/CrossPack-AVR-20131216/avr/include/util/delay.h ****     \endcode
  53:/usr/local/CrossPack-AVR-20131216/avr/include/util/delay.h **** 
  54:/usr/local/CrossPack-AVR-20131216/avr/include/util/delay.h ****     \note As an alternative method, it is possible to pass the
  55:/usr/local/CrossPack-AVR-20131216/avr/include/util/delay.h ****     F_CPU macro down to the compiler from the Makefile.
  56:/usr/local/CrossPack-AVR-20131216/avr/include/util/delay.h ****     Obviously, in that case, no \c \#define statement should be
  57:/usr/local/CrossPack-AVR-20131216/avr/include/util/delay.h ****     used.
  58:/usr/local/CrossPack-AVR-20131216/avr/include/util/delay.h **** 
  59:/usr/local/CrossPack-AVR-20131216/avr/include/util/delay.h ****     The functions in this header file are wrappers around the basic
  60:/usr/local/CrossPack-AVR-20131216/avr/include/util/delay.h ****     busy-wait functions from <util/delay_basic.h>.  They are meant as
  61:/usr/local/CrossPack-AVR-20131216/avr/include/util/delay.h ****     convenience functions where actual time values can be specified
  62:/usr/local/CrossPack-AVR-20131216/avr/include/util/delay.h ****     rather than a number of cycles to wait for.  The idea behind is
  63:/usr/local/CrossPack-AVR-20131216/avr/include/util/delay.h ****     that compile-time constant expressions will be eliminated by
  64:/usr/local/CrossPack-AVR-20131216/avr/include/util/delay.h ****     compiler optimization so floating-point expressions can be used
  65:/usr/local/CrossPack-AVR-20131216/avr/include/util/delay.h ****     to calculate the number of delay cycles needed based on the CPU
  66:/usr/local/CrossPack-AVR-20131216/avr/include/util/delay.h ****     frequency passed by the macro F_CPU.
  67:/usr/local/CrossPack-AVR-20131216/avr/include/util/delay.h **** 
  68:/usr/local/CrossPack-AVR-20131216/avr/include/util/delay.h ****     \note In order for these functions to work as intended, compiler
  69:/usr/local/CrossPack-AVR-20131216/avr/include/util/delay.h ****     optimizations <em>must</em> be enabled, and the delay time
  70:/usr/local/CrossPack-AVR-20131216/avr/include/util/delay.h ****     <em>must</em> be an expression that is a known constant at
  71:/usr/local/CrossPack-AVR-20131216/avr/include/util/delay.h ****     compile-time.  If these requirements are not met, the resulting
  72:/usr/local/CrossPack-AVR-20131216/avr/include/util/delay.h ****     delay will be much longer (and basically unpredictable), and
  73:/usr/local/CrossPack-AVR-20131216/avr/include/util/delay.h ****     applications that otherwise do not use floating-point calculations
  74:/usr/local/CrossPack-AVR-20131216/avr/include/util/delay.h ****     will experience severe code bloat by the floating-point library
  75:/usr/local/CrossPack-AVR-20131216/avr/include/util/delay.h ****     routines linked into the application.
  76:/usr/local/CrossPack-AVR-20131216/avr/include/util/delay.h **** 
  77:/usr/local/CrossPack-AVR-20131216/avr/include/util/delay.h ****     The functions available allow the specification of microsecond, and
  78:/usr/local/CrossPack-AVR-20131216/avr/include/util/delay.h ****     millisecond delays directly, using the application-supplied macro
  79:/usr/local/CrossPack-AVR-20131216/avr/include/util/delay.h ****     F_CPU as the CPU clock frequency (in Hertz).
  80:/usr/local/CrossPack-AVR-20131216/avr/include/util/delay.h **** 
  81:/usr/local/CrossPack-AVR-20131216/avr/include/util/delay.h **** */
  82:/usr/local/CrossPack-AVR-20131216/avr/include/util/delay.h **** 
  83:/usr/local/CrossPack-AVR-20131216/avr/include/util/delay.h **** #if !defined(__DOXYGEN__)
  84:/usr/local/CrossPack-AVR-20131216/avr/include/util/delay.h **** static inline void _delay_us(double __us) __attribute__((always_inline));
  85:/usr/local/CrossPack-AVR-20131216/avr/include/util/delay.h **** static inline void _delay_ms(double __ms) __attribute__((always_inline));
  86:/usr/local/CrossPack-AVR-20131216/avr/include/util/delay.h **** #endif
  87:/usr/local/CrossPack-AVR-20131216/avr/include/util/delay.h **** 
  88:/usr/local/CrossPack-AVR-20131216/avr/include/util/delay.h **** #ifndef F_CPU
  89:/usr/local/CrossPack-AVR-20131216/avr/include/util/delay.h **** /* prevent compiler error by supplying a default */
  90:/usr/local/CrossPack-AVR-20131216/avr/include/util/delay.h **** # warning "F_CPU not defined for <util/delay.h>"
  91:/usr/local/CrossPack-AVR-20131216/avr/include/util/delay.h **** # define F_CPU 1000000UL
  92:/usr/local/CrossPack-AVR-20131216/avr/include/util/delay.h **** #endif
  93:/usr/local/CrossPack-AVR-20131216/avr/include/util/delay.h **** 
  94:/usr/local/CrossPack-AVR-20131216/avr/include/util/delay.h **** #ifndef __OPTIMIZE__
  95:/usr/local/CrossPack-AVR-20131216/avr/include/util/delay.h **** # warning "Compiler optimizations disabled; functions from <util/delay.h> won't work as designed"
  96:/usr/local/CrossPack-AVR-20131216/avr/include/util/delay.h **** #endif
  97:/usr/local/CrossPack-AVR-20131216/avr/include/util/delay.h **** 
  98:/usr/local/CrossPack-AVR-20131216/avr/include/util/delay.h **** #if __HAS_DELAY_CYCLES && defined(__OPTIMIZE__) && \
  99:/usr/local/CrossPack-AVR-20131216/avr/include/util/delay.h ****   !defined(__DELAY_BACKWARD_COMPATIBLE__) &&	   \
 100:/usr/local/CrossPack-AVR-20131216/avr/include/util/delay.h ****   __STDC_HOSTED__
 101:/usr/local/CrossPack-AVR-20131216/avr/include/util/delay.h **** #  include <math.h>
 102:/usr/local/CrossPack-AVR-20131216/avr/include/util/delay.h **** #endif
GAS LISTING /var/folders/7l/9pmsqbq54pd4f14gcz60xhbh0000gn/T//ccqTWAch.s 			page 9


 103:/usr/local/CrossPack-AVR-20131216/avr/include/util/delay.h **** 
 104:/usr/local/CrossPack-AVR-20131216/avr/include/util/delay.h **** /**
 105:/usr/local/CrossPack-AVR-20131216/avr/include/util/delay.h ****    \ingroup util_delay
 106:/usr/local/CrossPack-AVR-20131216/avr/include/util/delay.h **** 
 107:/usr/local/CrossPack-AVR-20131216/avr/include/util/delay.h ****    Perform a delay of \c __ms milliseconds, using _delay_loop_2().
 108:/usr/local/CrossPack-AVR-20131216/avr/include/util/delay.h **** 
 109:/usr/local/CrossPack-AVR-20131216/avr/include/util/delay.h ****    The macro F_CPU is supposed to be defined to a
 110:/usr/local/CrossPack-AVR-20131216/avr/include/util/delay.h ****    constant defining the CPU clock frequency (in Hertz).
 111:/usr/local/CrossPack-AVR-20131216/avr/include/util/delay.h **** 
 112:/usr/local/CrossPack-AVR-20131216/avr/include/util/delay.h ****    The maximal possible delay is 262.14 ms / F_CPU in MHz.
 113:/usr/local/CrossPack-AVR-20131216/avr/include/util/delay.h **** 
 114:/usr/local/CrossPack-AVR-20131216/avr/include/util/delay.h ****    When the user request delay which exceed the maximum possible one,
 115:/usr/local/CrossPack-AVR-20131216/avr/include/util/delay.h ****    _delay_ms() provides a decreased resolution functionality. In this
 116:/usr/local/CrossPack-AVR-20131216/avr/include/util/delay.h ****    mode _delay_ms() will work with a resolution of 1/10 ms, providing
 117:/usr/local/CrossPack-AVR-20131216/avr/include/util/delay.h ****    delays up to 6.5535 seconds (independent from CPU frequency).  The
 118:/usr/local/CrossPack-AVR-20131216/avr/include/util/delay.h ****    user will not be informed about decreased resolution.
 119:/usr/local/CrossPack-AVR-20131216/avr/include/util/delay.h **** 
 120:/usr/local/CrossPack-AVR-20131216/avr/include/util/delay.h ****    If the avr-gcc toolchain has __builtin_avr_delay_cycles(unsigned long)
 121:/usr/local/CrossPack-AVR-20131216/avr/include/util/delay.h ****    support, maximal possible delay is 4294967.295 ms/ F_CPU in MHz. For
 122:/usr/local/CrossPack-AVR-20131216/avr/include/util/delay.h ****    values greater than the maximal possible delay, overflows results in
 123:/usr/local/CrossPack-AVR-20131216/avr/include/util/delay.h ****    no delay i.e., 0ms.
 124:/usr/local/CrossPack-AVR-20131216/avr/include/util/delay.h **** 
 125:/usr/local/CrossPack-AVR-20131216/avr/include/util/delay.h ****    Conversion of __us into clock cycles may not always result in integer.
 126:/usr/local/CrossPack-AVR-20131216/avr/include/util/delay.h ****    By default, the clock cycles rounded up to next integer. This ensures that
 127:/usr/local/CrossPack-AVR-20131216/avr/include/util/delay.h ****    the user gets atleast __us microseconds of delay.
 128:/usr/local/CrossPack-AVR-20131216/avr/include/util/delay.h **** 
 129:/usr/local/CrossPack-AVR-20131216/avr/include/util/delay.h ****    Alternatively, user can define __DELAY_ROUND_DOWN__ and __DELAY_ROUND_CLOSEST__
 130:/usr/local/CrossPack-AVR-20131216/avr/include/util/delay.h ****    to round down and round to closest integer.
 131:/usr/local/CrossPack-AVR-20131216/avr/include/util/delay.h **** 
 132:/usr/local/CrossPack-AVR-20131216/avr/include/util/delay.h ****    Note: The new implementation of _delay_ms(double __ms) with 
 133:/usr/local/CrossPack-AVR-20131216/avr/include/util/delay.h ****     __builtin_avr_delay_cycles(unsigned long) support is not backward compatible. 
 134:/usr/local/CrossPack-AVR-20131216/avr/include/util/delay.h ****    User can define __DELAY_BACKWARD_COMPATIBLE__ to get a backward compatible delay.
 135:/usr/local/CrossPack-AVR-20131216/avr/include/util/delay.h ****    Also, the backward compatible
 136:/usr/local/CrossPack-AVR-20131216/avr/include/util/delay.h ****    algorithm will be chosen if the code is compiled in a <em>freestanding
 137:/usr/local/CrossPack-AVR-20131216/avr/include/util/delay.h ****    environment</em> (GCC option \c -ffreestanding), as the math functions
 138:/usr/local/CrossPack-AVR-20131216/avr/include/util/delay.h ****    required for rounding are not available to the compiler then.
 139:/usr/local/CrossPack-AVR-20131216/avr/include/util/delay.h **** 
 140:/usr/local/CrossPack-AVR-20131216/avr/include/util/delay.h ****  */
 141:/usr/local/CrossPack-AVR-20131216/avr/include/util/delay.h **** void
 142:/usr/local/CrossPack-AVR-20131216/avr/include/util/delay.h **** _delay_ms(double __ms)
 143:/usr/local/CrossPack-AVR-20131216/avr/include/util/delay.h **** {
 144:/usr/local/CrossPack-AVR-20131216/avr/include/util/delay.h **** 	double __tmp ; 
 145:/usr/local/CrossPack-AVR-20131216/avr/include/util/delay.h **** #if __HAS_DELAY_CYCLES && defined(__OPTIMIZE__) && \
 146:/usr/local/CrossPack-AVR-20131216/avr/include/util/delay.h ****   !defined(__DELAY_BACKWARD_COMPATIBLE__) &&	   \
 147:/usr/local/CrossPack-AVR-20131216/avr/include/util/delay.h ****   __STDC_HOSTED__
 148:/usr/local/CrossPack-AVR-20131216/avr/include/util/delay.h **** 	uint32_t __ticks_dc;
 149:/usr/local/CrossPack-AVR-20131216/avr/include/util/delay.h **** 	extern void __builtin_avr_delay_cycles(unsigned long);
 150:/usr/local/CrossPack-AVR-20131216/avr/include/util/delay.h **** 	__tmp = ((F_CPU) / 1e3) * __ms;
 151:/usr/local/CrossPack-AVR-20131216/avr/include/util/delay.h **** 
 152:/usr/local/CrossPack-AVR-20131216/avr/include/util/delay.h **** 	#if defined(__DELAY_ROUND_DOWN__)
 153:/usr/local/CrossPack-AVR-20131216/avr/include/util/delay.h **** 		__ticks_dc = (uint32_t)fabs(__tmp);
 154:/usr/local/CrossPack-AVR-20131216/avr/include/util/delay.h **** 
 155:/usr/local/CrossPack-AVR-20131216/avr/include/util/delay.h **** 	#elif defined(__DELAY_ROUND_CLOSEST__)
 156:/usr/local/CrossPack-AVR-20131216/avr/include/util/delay.h **** 		__ticks_dc = (uint32_t)(fabs(__tmp)+0.5);
 157:/usr/local/CrossPack-AVR-20131216/avr/include/util/delay.h **** 
 158:/usr/local/CrossPack-AVR-20131216/avr/include/util/delay.h **** 	#else
 159:/usr/local/CrossPack-AVR-20131216/avr/include/util/delay.h **** 		//round up by default
GAS LISTING /var/folders/7l/9pmsqbq54pd4f14gcz60xhbh0000gn/T//ccqTWAch.s 			page 10


 160:/usr/local/CrossPack-AVR-20131216/avr/include/util/delay.h **** 		__ticks_dc = (uint32_t)(ceil(fabs(__tmp)));
 161:/usr/local/CrossPack-AVR-20131216/avr/include/util/delay.h **** 	#endif
 162:/usr/local/CrossPack-AVR-20131216/avr/include/util/delay.h **** 
 163:/usr/local/CrossPack-AVR-20131216/avr/include/util/delay.h **** 	__builtin_avr_delay_cycles(__ticks_dc);
 167               		.loc 2 163 0
 168 00bc EFE9      		ldi r30,lo8(3999)
 169 00be FFE0      		ldi r31,hi8(3999)
 170 00c0 3197      		1: sbiw r30,1
 171 00c2 01F4      		brne 1b
 172 00c4 00C0      		rjmp .
 173 00c6 0000      		nop
 174 00c8 00C0      		rjmp .L12
 175               	.LVL11:
 176               	.L14:
 177               	.LBE7:
 178               	.LBE6:
 188:main.c        ****         _delay_ms(1);
 189:main.c        ****     }
 190:main.c        ****     usbDeviceConnect();
 179               		.loc 1 190 0
 180 00ca 5298      		cbi 0xa,2
 181 00cc 0895      		ret
 182               		.cfi_endproc
 183               	.LFE10:
 184               		.size	init_USB, .-init_USB
 185               	.global	add_to_filt
 186               		.type	add_to_filt, @function
 187               	add_to_filt:
 188               	.LFB12:
 191:main.c        **** }
 192:main.c        **** 
 193:main.c        **** void idle_task(void)
 194:main.c        **** {
 195:main.c        ****     static int32_t T, P;
 196:main.c        ****     static int16_t x, y, z, x2, y2, z2, mx, my, mz;
 197:main.c        ****     static ma16_filt_t xfilt, yfilt, zfilt;
 198:main.c        ****     static uint32_t time;
 199:main.c        **** 	if(swTimer_expired(&led_timer)){
 200:main.c        **** 		seq_ind++;
 201:main.c        **** 		if(seq_ind > 2)
 202:main.c        **** 			seq_ind = 0;
 203:main.c        **** 		PORTD = (~RED_BLUE_MASK & PORTD) | (RED_BLUE_MASK & sequence[seq_ind][0]);
 204:main.c        **** 		swTimer_set(&led_timer, sequence[seq_ind][1]);
 205:main.c        **** 		swTimer_start(&led_timer);
 206:main.c        **** 	}
 207:main.c        **** 
 208:main.c        ****     if(swTimer_expired(&bmp280_timer)){
 209:main.c        ****         time = getSysTicks();
 210:main.c        ****         bmp280_get_temp_press(&T, &P);
 211:main.c        **** 
 212:main.c        ****         if(lsm303_mag_data_status() & LSM303_ZYXDA){
 213:main.c        ****             lsm303_read_mag(&mx, &my, &mz);
 214:main.c        ****         }
 215:main.c        **** 
 216:main.c        ****         serialize_uint32(&g_stream, &time);
 217:main.c        ****         serialize_int32(&g_stream, &T);
 218:main.c        ****         serialize_int32(&g_stream, &P);
GAS LISTING /var/folders/7l/9pmsqbq54pd4f14gcz60xhbh0000gn/T//ccqTWAch.s 			page 11


 219:main.c        ****         serialize_int16(&g_stream, &(xfilt.val));
 220:main.c        ****         serialize_int16(&g_stream, &(yfilt.val));
 221:main.c        ****         serialize_int16(&g_stream, &(zfilt.val));
 222:main.c        ****         serialize_int16(&g_stream, &x2);
 223:main.c        ****         serialize_int16(&g_stream, &y2);
 224:main.c        ****         serialize_int16(&g_stream, &z2);
 225:main.c        ****         serialize_int16(&g_stream, &mx);
 226:main.c        ****         serialize_int16(&g_stream, &my);
 227:main.c        ****         serialize_int16(&g_stream, &mz);
 228:main.c        ****         swTimer_restart(&bmp280_timer);
 229:main.c        ****     }
 230:main.c        ****     if(lis331_data_ready()){
 231:main.c        ****         lis331_read(&x, &y, &z); 
 232:main.c        ****         add_to_filt(&xfilt, x);
 233:main.c        ****         add_to_filt(&yfilt, y);
 234:main.c        ****         add_to_filt(&zfilt, z);
 235:main.c        ****     }
 236:main.c        ****     if(lsm303_data_ready_int()){
 237:main.c        ****         lsm303_read_accel(&x2, &y2, &z2);
 238:main.c        ****     }
 239:main.c        **** }
 240:main.c        **** 
 241:main.c        **** void add_to_filt(ma16_filt_t *filt, int16_t val){
 189               		.loc 1 241 0
 190               		.cfi_startproc
 191               	.LVL12:
 192 00ce CF93      		push r28
 193               	.LCFI0:
 194               		.cfi_def_cfa_offset 3
 195               		.cfi_offset 28, -2
 196 00d0 DF93      		push r29
 197               	.LCFI1:
 198               		.cfi_def_cfa_offset 4
 199               		.cfi_offset 29, -3
 200               	/* prologue: function */
 201               	/* frame size = 0 */
 202               	/* stack size = 2 */
 203               	.L__stack_usage = 2
 204 00d2 FC01      		movw r30,r24
 242:main.c        ****     if(filt->ind < (MA_FILT_LEN - 1)){
 205               		.loc 1 242 0
 206 00d4 40A1      		ldd r20,Z+32
 207 00d6 21A1      		ldd r18,Z+33
 208 00d8 32A1      		ldd r19,Z+34
 209 00da 4F30      		cpi r20,lo8(15)
 210 00dc 00F4      		brsh .L16
 211 00de DC01      		movw r26,r24
 212 00e0 A40F      		add r26,r20
 213 00e2 B11D      		adc r27,__zero_reg__
 214 00e4 A40F      		add r26,r20
 215 00e6 B11D      		adc r27,__zero_reg__
 243:main.c        ****         filt->val += val - filt->buff[filt->ind];
 216               		.loc 1 243 0
 217 00e8 8D91      		ld r24,X+
 218 00ea 9C91      		ld r25,X
 219 00ec 1197      		sbiw r26,1
 220               	.LVL13:
GAS LISTING /var/folders/7l/9pmsqbq54pd4f14gcz60xhbh0000gn/T//ccqTWAch.s 			page 12


 221 00ee EB01      		movw r28,r22
 222 00f0 C81B      		sub r28,r24
 223 00f2 D90B      		sbc r29,r25
 224 00f4 CE01      		movw r24,r28
 225 00f6 820F      		add r24,r18
 226 00f8 931F      		adc r25,r19
 227 00fa 92A3      		std Z+34,r25
 228 00fc 81A3      		std Z+33,r24
 244:main.c        ****         filt->buff[filt->ind] = val;
 229               		.loc 1 244 0
 230 00fe 6D93      		st X+,r22
 231 0100 7C93      		st X,r23
 245:main.c        ****         filt->ind++;
 232               		.loc 1 245 0
 233 0102 4F5F      		subi r20,lo8(-(1))
 234 0104 40A3      		std Z+32,r20
 235 0106 00C0      		rjmp .L15
 236               	.LVL14:
 237               	.L16:
 238               	.LBB10:
 239               	.LBB11:
 246:main.c        ****     }
 247:main.c        ****     else{
 248:main.c        ****         filt->val += val - filt->buff[0];
 240               		.loc 1 248 0
 241 0108 8081      		ld r24,Z
 242 010a 9181      		ldd r25,Z+1
 243               	.LVL15:
 244 010c AB01      		movw r20,r22
 245 010e 481B      		sub r20,r24
 246 0110 590B      		sbc r21,r25
 247 0112 CA01      		movw r24,r20
 248 0114 820F      		add r24,r18
 249 0116 931F      		adc r25,r19
 250 0118 92A3      		std Z+34,r25
 251 011a 81A3      		std Z+33,r24
 249:main.c        ****         filt->buff[0] = val;
 252               		.loc 1 249 0
 253 011c 7183      		std Z+1,r23
 254 011e 6083      		st Z,r22
 250:main.c        ****         filt->ind = 1;
 255               		.loc 1 250 0
 256 0120 81E0      		ldi r24,lo8(1)
 257 0122 80A3      		std Z+32,r24
 258               	.LVL16:
 259               	.L15:
 260               	/* epilogue start */
 261               	.LBE11:
 262               	.LBE10:
 251:main.c        ****     }
 252:main.c        **** }
 263               		.loc 1 252 0
 264 0124 DF91      		pop r29
 265 0126 CF91      		pop r28
 266 0128 0895      		ret
 267               		.cfi_endproc
 268               	.LFE12:
GAS LISTING /var/folders/7l/9pmsqbq54pd4f14gcz60xhbh0000gn/T//ccqTWAch.s 			page 13


 269               		.size	add_to_filt, .-add_to_filt
 270               	.global	idle_task
 271               		.type	idle_task, @function
 272               	idle_task:
 273               	.LFB11:
 194:main.c        **** {
 274               		.loc 1 194 0
 275               		.cfi_startproc
 276               	/* prologue: function */
 277               	/* frame size = 0 */
 278               	/* stack size = 0 */
 279               	.L__stack_usage = 0
 199:main.c        **** 	if(swTimer_expired(&led_timer)){
 280               		.loc 1 199 0
 281 012a 80E0      		ldi r24,lo8(led_timer)
 282 012c 90E0      		ldi r25,hi8(led_timer)
 283 012e 0E94 0000 		call swTimer_expired
 284               	.LVL17:
 285 0132 892B      		or r24,r25
 286 0134 01F0      		breq .L19
 200:main.c        **** 		seq_ind++;
 287               		.loc 1 200 0
 288 0136 8091 0000 		lds r24,seq_ind
 289 013a 8F5F      		subi r24,lo8(-(1))
 201:main.c        **** 		if(seq_ind > 2)
 290               		.loc 1 201 0
 291 013c 8330      		cpi r24,lo8(3)
 292 013e 00F4      		brsh .L20
 200:main.c        **** 		seq_ind++;
 293               		.loc 1 200 0
 294 0140 8093 0000 		sts seq_ind,r24
 295 0144 00C0      		rjmp .L21
 296               	.L20:
 202:main.c        **** 			seq_ind = 0;
 297               		.loc 1 202 0
 298 0146 1092 0000 		sts seq_ind,__zero_reg__
 299               	.L21:
 203:main.c        **** 		PORTD = (~RED_BLUE_MASK & PORTD) | (RED_BLUE_MASK & sequence[seq_ind][0]);
 300               		.loc 1 203 0
 301 014a 9BB1      		in r25,0xb
 302 014c E091 0000 		lds r30,seq_ind
 303 0150 F0E0      		ldi r31,0
 304 0152 EE0F      		lsl r30
 305 0154 FF1F      		rol r31
 306 0156 E050      		subi r30,lo8(-(sequence))
 307 0158 F040      		sbci r31,hi8(-(sequence))
 308 015a 8081      		ld r24,Z
 309 015c 8075      		andi r24,lo8(80)
 310 015e 9F7A      		andi r25,lo8(-81)
 311 0160 892B      		or r24,r25
 312 0162 8BB9      		out 0xb,r24
 204:main.c        **** 		swTimer_set(&led_timer, sequence[seq_ind][1]);
 313               		.loc 1 204 0
 314 0164 E091 0000 		lds r30,seq_ind
 315 0168 F0E0      		ldi r31,0
 316 016a EE0F      		lsl r30
 317 016c FF1F      		rol r31
GAS LISTING /var/folders/7l/9pmsqbq54pd4f14gcz60xhbh0000gn/T//ccqTWAch.s 			page 14


 318 016e E050      		subi r30,lo8(-(sequence))
 319 0170 F040      		sbci r31,hi8(-(sequence))
 320 0172 4181      		ldd r20,Z+1
 321 0174 50E0      		ldi r21,0
 322 0176 60E0      		ldi r22,0
 323 0178 70E0      		ldi r23,0
 324 017a 80E0      		ldi r24,lo8(led_timer)
 325 017c 90E0      		ldi r25,hi8(led_timer)
 326 017e 0E94 0000 		call swTimer_set
 327               	.LVL18:
 205:main.c        **** 		swTimer_start(&led_timer);
 328               		.loc 1 205 0
 329 0182 80E0      		ldi r24,lo8(led_timer)
 330 0184 90E0      		ldi r25,hi8(led_timer)
 331 0186 0E94 0000 		call swTimer_start
 332               	.LVL19:
 333               	.L19:
 208:main.c        ****     if(swTimer_expired(&bmp280_timer)){
 334               		.loc 1 208 0
 335 018a 80E0      		ldi r24,lo8(bmp280_timer)
 336 018c 90E0      		ldi r25,hi8(bmp280_timer)
 337 018e 0E94 0000 		call swTimer_expired
 338               	.LVL20:
 339 0192 892B      		or r24,r25
 340 0194 01F4      		brne .+2
 341 0196 00C0      		rjmp .L22
 209:main.c        ****         time = getSysTicks();
 342               		.loc 1 209 0
 343 0198 0E94 0000 		call getSysTicks
 344               	.LVL21:
 345 019c 6093 0000 		sts time.2079,r22
 346 01a0 7093 0000 		sts time.2079+1,r23
 347 01a4 8093 0000 		sts time.2079+2,r24
 348 01a8 9093 0000 		sts time.2079+3,r25
 210:main.c        ****         bmp280_get_temp_press(&T, &P);
 349               		.loc 1 210 0
 350 01ac 60E0      		ldi r22,lo8(P.2066)
 351 01ae 70E0      		ldi r23,hi8(P.2066)
 352 01b0 80E0      		ldi r24,lo8(T.2065)
 353 01b2 90E0      		ldi r25,hi8(T.2065)
 354 01b4 0E94 0000 		call bmp280_get_temp_press
 355               	.LVL22:
 212:main.c        ****         if(lsm303_mag_data_status() & LSM303_ZYXDA){
 356               		.loc 1 212 0
 357 01b8 0E94 0000 		call lsm303_mag_data_status
 358               	.LVL23:
 359 01bc 83FF      		sbrs r24,3
 360 01be 00C0      		rjmp .L23
 213:main.c        ****             lsm303_read_mag(&mx, &my, &mz);
 361               		.loc 1 213 0
 362 01c0 40E0      		ldi r20,lo8(mz.2075)
 363 01c2 50E0      		ldi r21,hi8(mz.2075)
 364 01c4 60E0      		ldi r22,lo8(my.2074)
 365 01c6 70E0      		ldi r23,hi8(my.2074)
 366 01c8 80E0      		ldi r24,lo8(mx.2073)
 367 01ca 90E0      		ldi r25,hi8(mx.2073)
 368 01cc 0E94 0000 		call lsm303_read_mag
GAS LISTING /var/folders/7l/9pmsqbq54pd4f14gcz60xhbh0000gn/T//ccqTWAch.s 			page 15


 369               	.LVL24:
 370               	.L23:
 216:main.c        ****         serialize_uint32(&g_stream, &time);
 371               		.loc 1 216 0
 372 01d0 60E0      		ldi r22,lo8(time.2079)
 373 01d2 70E0      		ldi r23,hi8(time.2079)
 374 01d4 80E0      		ldi r24,lo8(g_stream)
 375 01d6 90E0      		ldi r25,hi8(g_stream)
 376 01d8 0E94 0000 		call serialize_uint32
 377               	.LVL25:
 217:main.c        ****         serialize_int32(&g_stream, &T);
 378               		.loc 1 217 0
 379 01dc 60E0      		ldi r22,lo8(T.2065)
 380 01de 70E0      		ldi r23,hi8(T.2065)
 381 01e0 80E0      		ldi r24,lo8(g_stream)
 382 01e2 90E0      		ldi r25,hi8(g_stream)
 383 01e4 0E94 0000 		call serialize_int32
 384               	.LVL26:
 218:main.c        ****         serialize_int32(&g_stream, &P);
 385               		.loc 1 218 0
 386 01e8 60E0      		ldi r22,lo8(P.2066)
 387 01ea 70E0      		ldi r23,hi8(P.2066)
 388 01ec 80E0      		ldi r24,lo8(g_stream)
 389 01ee 90E0      		ldi r25,hi8(g_stream)
 390 01f0 0E94 0000 		call serialize_int32
 391               	.LVL27:
 219:main.c        ****         serialize_int16(&g_stream, &(xfilt.val));
 392               		.loc 1 219 0
 393 01f4 60E0      		ldi r22,lo8(xfilt.2076+33)
 394 01f6 70E0      		ldi r23,hi8(xfilt.2076+33)
 395 01f8 80E0      		ldi r24,lo8(g_stream)
 396 01fa 90E0      		ldi r25,hi8(g_stream)
 397 01fc 0E94 0000 		call serialize_int16
 398               	.LVL28:
 220:main.c        ****         serialize_int16(&g_stream, &(yfilt.val));
 399               		.loc 1 220 0
 400 0200 60E0      		ldi r22,lo8(yfilt.2077+33)
 401 0202 70E0      		ldi r23,hi8(yfilt.2077+33)
 402 0204 80E0      		ldi r24,lo8(g_stream)
 403 0206 90E0      		ldi r25,hi8(g_stream)
 404 0208 0E94 0000 		call serialize_int16
 405               	.LVL29:
 221:main.c        ****         serialize_int16(&g_stream, &(zfilt.val));
 406               		.loc 1 221 0
 407 020c 60E0      		ldi r22,lo8(zfilt.2078+33)
 408 020e 70E0      		ldi r23,hi8(zfilt.2078+33)
 409 0210 80E0      		ldi r24,lo8(g_stream)
 410 0212 90E0      		ldi r25,hi8(g_stream)
 411 0214 0E94 0000 		call serialize_int16
 412               	.LVL30:
 222:main.c        ****         serialize_int16(&g_stream, &x2);
 413               		.loc 1 222 0
 414 0218 60E0      		ldi r22,lo8(x2.2070)
 415 021a 70E0      		ldi r23,hi8(x2.2070)
 416 021c 80E0      		ldi r24,lo8(g_stream)
 417 021e 90E0      		ldi r25,hi8(g_stream)
 418 0220 0E94 0000 		call serialize_int16
GAS LISTING /var/folders/7l/9pmsqbq54pd4f14gcz60xhbh0000gn/T//ccqTWAch.s 			page 16


 419               	.LVL31:
 223:main.c        ****         serialize_int16(&g_stream, &y2);
 420               		.loc 1 223 0
 421 0224 60E0      		ldi r22,lo8(y2.2071)
 422 0226 70E0      		ldi r23,hi8(y2.2071)
 423 0228 80E0      		ldi r24,lo8(g_stream)
 424 022a 90E0      		ldi r25,hi8(g_stream)
 425 022c 0E94 0000 		call serialize_int16
 426               	.LVL32:
 224:main.c        ****         serialize_int16(&g_stream, &z2);
 427               		.loc 1 224 0
 428 0230 60E0      		ldi r22,lo8(z2.2072)
 429 0232 70E0      		ldi r23,hi8(z2.2072)
 430 0234 80E0      		ldi r24,lo8(g_stream)
 431 0236 90E0      		ldi r25,hi8(g_stream)
 432 0238 0E94 0000 		call serialize_int16
 433               	.LVL33:
 225:main.c        ****         serialize_int16(&g_stream, &mx);
 434               		.loc 1 225 0
 435 023c 60E0      		ldi r22,lo8(mx.2073)
 436 023e 70E0      		ldi r23,hi8(mx.2073)
 437 0240 80E0      		ldi r24,lo8(g_stream)
 438 0242 90E0      		ldi r25,hi8(g_stream)
 439 0244 0E94 0000 		call serialize_int16
 440               	.LVL34:
 226:main.c        ****         serialize_int16(&g_stream, &my);
 441               		.loc 1 226 0
 442 0248 60E0      		ldi r22,lo8(my.2074)
 443 024a 70E0      		ldi r23,hi8(my.2074)
 444 024c 80E0      		ldi r24,lo8(g_stream)
 445 024e 90E0      		ldi r25,hi8(g_stream)
 446 0250 0E94 0000 		call serialize_int16
 447               	.LVL35:
 227:main.c        ****         serialize_int16(&g_stream, &mz);
 448               		.loc 1 227 0
 449 0254 60E0      		ldi r22,lo8(mz.2075)
 450 0256 70E0      		ldi r23,hi8(mz.2075)
 451 0258 80E0      		ldi r24,lo8(g_stream)
 452 025a 90E0      		ldi r25,hi8(g_stream)
 453 025c 0E94 0000 		call serialize_int16
 454               	.LVL36:
 228:main.c        ****         swTimer_restart(&bmp280_timer);
 455               		.loc 1 228 0
 456 0260 80E0      		ldi r24,lo8(bmp280_timer)
 457 0262 90E0      		ldi r25,hi8(bmp280_timer)
 458 0264 0E94 0000 		call swTimer_restart
 459               	.LVL37:
 460               	.L22:
 230:main.c        ****     if(lis331_data_ready()){
 461               		.loc 1 230 0
 462 0268 0E94 0000 		call lis331_data_ready
 463               	.LVL38:
 464 026c 8823      		tst r24
 465 026e 01F0      		breq .L24
 231:main.c        ****         lis331_read(&x, &y, &z); 
 466               		.loc 1 231 0
 467 0270 40E0      		ldi r20,lo8(z.2069)
GAS LISTING /var/folders/7l/9pmsqbq54pd4f14gcz60xhbh0000gn/T//ccqTWAch.s 			page 17


 468 0272 50E0      		ldi r21,hi8(z.2069)
 469 0274 60E0      		ldi r22,lo8(y.2068)
 470 0276 70E0      		ldi r23,hi8(y.2068)
 471 0278 80E0      		ldi r24,lo8(x.2067)
 472 027a 90E0      		ldi r25,hi8(x.2067)
 473 027c 0E94 0000 		call lis331_read
 474               	.LVL39:
 232:main.c        ****         add_to_filt(&xfilt, x);
 475               		.loc 1 232 0
 476 0280 6091 0000 		lds r22,x.2067
 477 0284 7091 0000 		lds r23,x.2067+1
 478 0288 80E0      		ldi r24,lo8(xfilt.2076)
 479 028a 90E0      		ldi r25,hi8(xfilt.2076)
 480 028c 0E94 0000 		call add_to_filt
 481               	.LVL40:
 233:main.c        ****         add_to_filt(&yfilt, y);
 482               		.loc 1 233 0
 483 0290 6091 0000 		lds r22,y.2068
 484 0294 7091 0000 		lds r23,y.2068+1
 485 0298 80E0      		ldi r24,lo8(yfilt.2077)
 486 029a 90E0      		ldi r25,hi8(yfilt.2077)
 487 029c 0E94 0000 		call add_to_filt
 488               	.LVL41:
 234:main.c        ****         add_to_filt(&zfilt, z);
 489               		.loc 1 234 0
 490 02a0 6091 0000 		lds r22,z.2069
 491 02a4 7091 0000 		lds r23,z.2069+1
 492 02a8 80E0      		ldi r24,lo8(zfilt.2078)
 493 02aa 90E0      		ldi r25,hi8(zfilt.2078)
 494 02ac 0E94 0000 		call add_to_filt
 495               	.LVL42:
 496               	.L24:
 236:main.c        ****     if(lsm303_data_ready_int()){
 497               		.loc 1 236 0
 498 02b0 0E94 0000 		call lsm303_data_ready_int
 499               	.LVL43:
 500 02b4 8823      		tst r24
 501 02b6 01F0      		breq .L18
 237:main.c        ****         lsm303_read_accel(&x2, &y2, &z2);
 502               		.loc 1 237 0
 503 02b8 40E0      		ldi r20,lo8(z2.2072)
 504 02ba 50E0      		ldi r21,hi8(z2.2072)
 505 02bc 60E0      		ldi r22,lo8(y2.2071)
 506 02be 70E0      		ldi r23,hi8(y2.2071)
 507 02c0 80E0      		ldi r24,lo8(x2.2070)
 508 02c2 90E0      		ldi r25,hi8(x2.2070)
 509 02c4 0C94 0000 		jmp lsm303_read_accel
 510               	.LVL44:
 511               	.L18:
 512 02c8 0895      		ret
 513               		.cfi_endproc
 514               	.LFE11:
 515               		.size	idle_task, .-idle_task
 516               	.global	enumerateI2C
 517               		.type	enumerateI2C, @function
 518               	enumerateI2C:
 519               	.LFB13:
GAS LISTING /var/folders/7l/9pmsqbq54pd4f14gcz60xhbh0000gn/T//ccqTWAch.s 			page 18


 253:main.c        **** void enumerateI2C(void)
 254:main.c        **** {
 520               		.loc 1 254 0
 521               		.cfi_startproc
 522 02ca CF93      		push r28
 523               	.LCFI2:
 524               		.cfi_def_cfa_offset 3
 525               		.cfi_offset 28, -2
 526 02cc DF93      		push r29
 527               	.LCFI3:
 528               		.cfi_def_cfa_offset 4
 529               		.cfi_offset 29, -3
 530               	/* prologue: function */
 531               	/* frame size = 0 */
 532               	/* stack size = 2 */
 533               	.L__stack_usage = 2
 255:main.c        ****     uint8_t addr;
 256:main.c        ****     int8_t retval;
 257:main.c        **** 
 258:main.c        ****     PORTD &= ~(1<<LED_GREEN_PIN);
 534               		.loc 1 258 0
 535 02ce 5D98      		cbi 0xb,5
 536               	.LVL45:
 537 02d0 C0E0      		ldi r28,0
 538 02d2 D0E0      		ldi r29,0
 539               	.LVL46:
 540               	.L42:
 259:main.c        ****     for(addr=0; addr<0x7F; addr++)
 260:main.c        ****     {
 261:main.c        ****         
 262:main.c        ****         TWCR &= ~BV(TWIE);
 541               		.loc 1 262 0
 542 02d4 8091 BC00 		lds r24,188
 543 02d8 8E7F      		andi r24,lo8(-2)
 544 02da 8093 BC00 		sts 188,r24
 263:main.c        **** 	    // send start condition
 264:main.c        **** 	    i2cSendStart();
 545               		.loc 1 264 0
 546 02de 0E94 0000 		call i2cSendStart
 547               	.LVL47:
 265:main.c        **** 	    retval = i2cWaitForComplete();
 548               		.loc 1 265 0
 549 02e2 0E94 0000 		call i2cWaitForComplete
 550               	.LVL48:
 266:main.c        **** 	    if(retval != I2C_OK) break;
 551               		.loc 1 266 0
 552 02e6 8823      		tst r24
 553 02e8 01F0      		breq .L39
 554               	.LVL49:
 555               	.L40:
 267:main.c        **** 
 268:main.c        **** 	    // send device address with write
 269:main.c        **** 	    i2cSendByte( (addr<<1) & 0xFE );
 270:main.c        **** 	    retval = i2cWaitForComplete();
 271:main.c        **** 	    if(retval != I2C_OK) break;
 272:main.c        **** 	    if( TWSR == TW_MT_SLA_ACK)
 273:main.c        ****         {
GAS LISTING /var/folders/7l/9pmsqbq54pd4f14gcz60xhbh0000gn/T//ccqTWAch.s 			page 19


 274:main.c        ****             g_i2c_dev_addrs[g_i2c_dev_idx++] = addr;   
 275:main.c        ****         }
 276:main.c        ****         
 277:main.c        **** 	    i2cSendStop();
 278:main.c        ****         TWCR |= BV(TWIE);
 279:main.c        ****         _delay_us(100);
 280:main.c        ****     }
 281:main.c        ****     PORTD |= (1<<LED_GREEN_PIN);
 556               		.loc 1 281 0
 557 02ea 5D9A      		sbi 0xb,5
 558               	/* epilogue start */
 282:main.c        **** }
 559               		.loc 1 282 0
 560 02ec DF91      		pop r29
 561 02ee CF91      		pop r28
 562 02f0 0895      		ret
 563               	.LVL50:
 564               	.L39:
 269:main.c        **** 	    i2cSendByte( (addr<<1) & 0xFE );
 565               		.loc 1 269 0
 566 02f2 8C2F      		mov r24,r28
 567               	.LVL51:
 568 02f4 880F      		lsl r24
 569 02f6 0E94 0000 		call i2cSendByte
 570               	.LVL52:
 270:main.c        **** 	    retval = i2cWaitForComplete();
 571               		.loc 1 270 0
 572 02fa 0E94 0000 		call i2cWaitForComplete
 573               	.LVL53:
 271:main.c        **** 	    if(retval != I2C_OK) break;
 574               		.loc 1 271 0
 575 02fe 8111      		cpse r24,__zero_reg__
 576 0300 00C0      		rjmp .L40
 272:main.c        **** 	    if( TWSR == TW_MT_SLA_ACK)
 577               		.loc 1 272 0
 578 0302 8091 B900 		lds r24,185
 579               	.LVL54:
 580 0306 8831      		cpi r24,lo8(24)
 581 0308 01F4      		brne .L41
 274:main.c        ****             g_i2c_dev_addrs[g_i2c_dev_idx++] = addr;   
 582               		.loc 1 274 0
 583 030a E091 0000 		lds r30,g_i2c_dev_idx
 584 030e 81E0      		ldi r24,lo8(1)
 585 0310 8E0F      		add r24,r30
 586 0312 8093 0000 		sts g_i2c_dev_idx,r24
 587 0316 F0E0      		ldi r31,0
 588 0318 E050      		subi r30,lo8(-(g_i2c_dev_addrs))
 589 031a F040      		sbci r31,hi8(-(g_i2c_dev_addrs))
 590 031c C083      		st Z,r28
 591               	.L41:
 277:main.c        **** 	    i2cSendStop();
 592               		.loc 1 277 0
 593 031e 0E94 0000 		call i2cSendStop
 594               	.LVL55:
 278:main.c        ****         TWCR |= BV(TWIE);
 595               		.loc 1 278 0
 596 0322 8091 BC00 		lds r24,188
GAS LISTING /var/folders/7l/9pmsqbq54pd4f14gcz60xhbh0000gn/T//ccqTWAch.s 			page 20


 597 0326 8160      		ori r24,lo8(1)
 598 0328 8093 BC00 		sts 188,r24
 599               	.LVL56:
 600               	.LBB12:
 601               	.LBB13:
 164:/usr/local/CrossPack-AVR-20131216/avr/include/util/delay.h **** 
 165:/usr/local/CrossPack-AVR-20131216/avr/include/util/delay.h **** #else
 166:/usr/local/CrossPack-AVR-20131216/avr/include/util/delay.h **** 	uint16_t __ticks;
 167:/usr/local/CrossPack-AVR-20131216/avr/include/util/delay.h **** 	__tmp = ((F_CPU) / 4e3) * __ms;
 168:/usr/local/CrossPack-AVR-20131216/avr/include/util/delay.h **** 	if (__tmp < 1.0)
 169:/usr/local/CrossPack-AVR-20131216/avr/include/util/delay.h **** 		__ticks = 1;
 170:/usr/local/CrossPack-AVR-20131216/avr/include/util/delay.h **** 	else if (__tmp > 65535)
 171:/usr/local/CrossPack-AVR-20131216/avr/include/util/delay.h **** 	{
 172:/usr/local/CrossPack-AVR-20131216/avr/include/util/delay.h **** 		//	__ticks = requested delay in 1/10 ms
 173:/usr/local/CrossPack-AVR-20131216/avr/include/util/delay.h **** 		__ticks = (uint16_t) (__ms * 10.0);
 174:/usr/local/CrossPack-AVR-20131216/avr/include/util/delay.h **** 		while(__ticks)
 175:/usr/local/CrossPack-AVR-20131216/avr/include/util/delay.h **** 		{
 176:/usr/local/CrossPack-AVR-20131216/avr/include/util/delay.h **** 			// wait 1/10 ms
 177:/usr/local/CrossPack-AVR-20131216/avr/include/util/delay.h **** 			_delay_loop_2(((F_CPU) / 4e3) / 10);
 178:/usr/local/CrossPack-AVR-20131216/avr/include/util/delay.h **** 			__ticks --;
 179:/usr/local/CrossPack-AVR-20131216/avr/include/util/delay.h **** 		}
 180:/usr/local/CrossPack-AVR-20131216/avr/include/util/delay.h **** 		return;
 181:/usr/local/CrossPack-AVR-20131216/avr/include/util/delay.h **** 	}
 182:/usr/local/CrossPack-AVR-20131216/avr/include/util/delay.h **** 	else
 183:/usr/local/CrossPack-AVR-20131216/avr/include/util/delay.h **** 		__ticks = (uint16_t)__tmp;
 184:/usr/local/CrossPack-AVR-20131216/avr/include/util/delay.h **** 	_delay_loop_2(__ticks);
 185:/usr/local/CrossPack-AVR-20131216/avr/include/util/delay.h **** #endif
 186:/usr/local/CrossPack-AVR-20131216/avr/include/util/delay.h **** }
 187:/usr/local/CrossPack-AVR-20131216/avr/include/util/delay.h **** 
 188:/usr/local/CrossPack-AVR-20131216/avr/include/util/delay.h **** /**
 189:/usr/local/CrossPack-AVR-20131216/avr/include/util/delay.h ****    \ingroup util_delay
 190:/usr/local/CrossPack-AVR-20131216/avr/include/util/delay.h **** 
 191:/usr/local/CrossPack-AVR-20131216/avr/include/util/delay.h ****    Perform a delay of \c __us microseconds, using _delay_loop_1().
 192:/usr/local/CrossPack-AVR-20131216/avr/include/util/delay.h **** 
 193:/usr/local/CrossPack-AVR-20131216/avr/include/util/delay.h ****    The macro F_CPU is supposed to be defined to a
 194:/usr/local/CrossPack-AVR-20131216/avr/include/util/delay.h ****    constant defining the CPU clock frequency (in Hertz).
 195:/usr/local/CrossPack-AVR-20131216/avr/include/util/delay.h **** 
 196:/usr/local/CrossPack-AVR-20131216/avr/include/util/delay.h ****    The maximal possible delay is 768 us / F_CPU in MHz.
 197:/usr/local/CrossPack-AVR-20131216/avr/include/util/delay.h **** 
 198:/usr/local/CrossPack-AVR-20131216/avr/include/util/delay.h ****    If the user requests a delay greater than the maximal possible one,
 199:/usr/local/CrossPack-AVR-20131216/avr/include/util/delay.h ****    _delay_us() will automatically call _delay_ms() instead.  The user
 200:/usr/local/CrossPack-AVR-20131216/avr/include/util/delay.h ****    will not be informed about this case.
 201:/usr/local/CrossPack-AVR-20131216/avr/include/util/delay.h **** 
 202:/usr/local/CrossPack-AVR-20131216/avr/include/util/delay.h ****    If the avr-gcc toolchain has __builtin_avr_delay_cycles(unsigned long)
 203:/usr/local/CrossPack-AVR-20131216/avr/include/util/delay.h ****    support, maximal possible delay is 4294967.295 us/ F_CPU in MHz. For
 204:/usr/local/CrossPack-AVR-20131216/avr/include/util/delay.h ****    values greater than the maximal possible delay, overflow results in
 205:/usr/local/CrossPack-AVR-20131216/avr/include/util/delay.h ****    no delay i.e., 0us.
 206:/usr/local/CrossPack-AVR-20131216/avr/include/util/delay.h ****   
 207:/usr/local/CrossPack-AVR-20131216/avr/include/util/delay.h ****    Conversion of __us into clock cycles may not always result in integer.
 208:/usr/local/CrossPack-AVR-20131216/avr/include/util/delay.h ****    By default, the clock cycles rounded up to next integer. This ensures that
 209:/usr/local/CrossPack-AVR-20131216/avr/include/util/delay.h ****    the user gets atleast __us microseconds of delay.
 210:/usr/local/CrossPack-AVR-20131216/avr/include/util/delay.h **** 
 211:/usr/local/CrossPack-AVR-20131216/avr/include/util/delay.h ****    Alternatively, user can define __DELAY_ROUND_DOWN__ and __DELAY_ROUND_CLOSEST__
 212:/usr/local/CrossPack-AVR-20131216/avr/include/util/delay.h ****    to round down and round to closest integer.
 213:/usr/local/CrossPack-AVR-20131216/avr/include/util/delay.h ****  
 214:/usr/local/CrossPack-AVR-20131216/avr/include/util/delay.h ****    Note: The new implementation of _delay_us(double __us) with 
 215:/usr/local/CrossPack-AVR-20131216/avr/include/util/delay.h ****     __builtin_avr_delay_cycles(unsigned long) support is not backward compatible.
GAS LISTING /var/folders/7l/9pmsqbq54pd4f14gcz60xhbh0000gn/T//ccqTWAch.s 			page 21


 216:/usr/local/CrossPack-AVR-20131216/avr/include/util/delay.h ****    User can define __DELAY_BACKWARD_COMPATIBLE__ to get a backward compatible delay.
 217:/usr/local/CrossPack-AVR-20131216/avr/include/util/delay.h ****    Also, the backward compatible
 218:/usr/local/CrossPack-AVR-20131216/avr/include/util/delay.h ****    algorithm will be chosen if the code is compiled in a <em>freestanding
 219:/usr/local/CrossPack-AVR-20131216/avr/include/util/delay.h ****    environment</em> (GCC option \c -ffreestanding), as the math functions
 220:/usr/local/CrossPack-AVR-20131216/avr/include/util/delay.h ****    required for rounding are not available to the compiler then.
 221:/usr/local/CrossPack-AVR-20131216/avr/include/util/delay.h **** 
 222:/usr/local/CrossPack-AVR-20131216/avr/include/util/delay.h ****  */
 223:/usr/local/CrossPack-AVR-20131216/avr/include/util/delay.h **** void
 224:/usr/local/CrossPack-AVR-20131216/avr/include/util/delay.h **** _delay_us(double __us)
 225:/usr/local/CrossPack-AVR-20131216/avr/include/util/delay.h **** {
 226:/usr/local/CrossPack-AVR-20131216/avr/include/util/delay.h **** 	double __tmp ; 
 227:/usr/local/CrossPack-AVR-20131216/avr/include/util/delay.h **** #if __HAS_DELAY_CYCLES && defined(__OPTIMIZE__) && \
 228:/usr/local/CrossPack-AVR-20131216/avr/include/util/delay.h ****   !defined(__DELAY_BACKWARD_COMPATIBLE__) &&	   \
 229:/usr/local/CrossPack-AVR-20131216/avr/include/util/delay.h ****   __STDC_HOSTED__
 230:/usr/local/CrossPack-AVR-20131216/avr/include/util/delay.h **** 	uint32_t __ticks_dc;
 231:/usr/local/CrossPack-AVR-20131216/avr/include/util/delay.h **** 	extern void __builtin_avr_delay_cycles(unsigned long);
 232:/usr/local/CrossPack-AVR-20131216/avr/include/util/delay.h **** 	__tmp = ((F_CPU) / 1e6) * __us;
 233:/usr/local/CrossPack-AVR-20131216/avr/include/util/delay.h **** 
 234:/usr/local/CrossPack-AVR-20131216/avr/include/util/delay.h **** 	#if defined(__DELAY_ROUND_DOWN__)
 235:/usr/local/CrossPack-AVR-20131216/avr/include/util/delay.h **** 		__ticks_dc = (uint32_t)fabs(__tmp);
 236:/usr/local/CrossPack-AVR-20131216/avr/include/util/delay.h **** 
 237:/usr/local/CrossPack-AVR-20131216/avr/include/util/delay.h **** 	#elif defined(__DELAY_ROUND_CLOSEST__)
 238:/usr/local/CrossPack-AVR-20131216/avr/include/util/delay.h **** 		__ticks_dc = (uint32_t)(fabs(__tmp)+0.5);
 239:/usr/local/CrossPack-AVR-20131216/avr/include/util/delay.h **** 
 240:/usr/local/CrossPack-AVR-20131216/avr/include/util/delay.h **** 	#else
 241:/usr/local/CrossPack-AVR-20131216/avr/include/util/delay.h **** 		//round up by default
 242:/usr/local/CrossPack-AVR-20131216/avr/include/util/delay.h **** 		__ticks_dc = (uint32_t)(ceil(fabs(__tmp)));
 243:/usr/local/CrossPack-AVR-20131216/avr/include/util/delay.h **** 	#endif
 244:/usr/local/CrossPack-AVR-20131216/avr/include/util/delay.h **** 
 245:/usr/local/CrossPack-AVR-20131216/avr/include/util/delay.h **** 	__builtin_avr_delay_cycles(__ticks_dc);
 602               		.loc 2 245 0
 603 032c 8FE8      		ldi r24,lo8(399)
 604 032e 91E0      		ldi r25,hi8(399)
 605 0330 0197      		1: sbiw r24,1
 606 0332 01F4      		brne 1b
 607 0334 00C0      		rjmp .
 608 0336 0000      		nop
 609               	.LVL57:
 610 0338 2196      		adiw r28,1
 611               	.LVL58:
 612               	.LBE13:
 613               	.LBE12:
 259:main.c        ****     for(addr=0; addr<0x7F; addr++)
 614               		.loc 1 259 0
 615 033a CF37      		cpi r28,127
 616 033c D105      		cpc r29,__zero_reg__
 617 033e 01F4      		brne .L42
 618 0340 00C0      		rjmp .L40
 619               		.cfi_endproc
 620               	.LFE13:
 621               		.size	enumerateI2C, .-enumerateI2C
 622               	.global	init
 623               		.type	init, @function
 624               	init:
 625               	.LFB9:
 146:main.c        **** {
 626               		.loc 1 146 0
GAS LISTING /var/folders/7l/9pmsqbq54pd4f14gcz60xhbh0000gn/T//ccqTWAch.s 			page 22


 627               		.cfi_startproc
 628               	/* prologue: function */
 629               	/* frame size = 0 */
 630               	/* stack size = 0 */
 631               	.L__stack_usage = 0
 147:main.c        ****     init_USB();
 632               		.loc 1 147 0
 633 0342 0E94 0000 		call init_USB
 634               	.LVL59:
 149:main.c        **** 	swTimer_init();
 635               		.loc 1 149 0
 636 0346 0E94 0000 		call swTimer_init
 637               	.LVL60:
 150:main.c        **** 	DDRD |= LED_MASK;
 638               		.loc 1 150 0
 639 034a 8AB1      		in r24,0xa
 640 034c 8067      		ori r24,lo8(112)
 641 034e 8AB9      		out 0xa,r24
 151:main.c        **** 	PORTD |= LED_MASK | (1<<SW_2_PIN);
 642               		.loc 1 151 0
 643 0350 8BB1      		in r24,0xb
 644 0352 806F      		ori r24,lo8(-16)
 645 0354 8BB9      		out 0xb,r24
 152:main.c        **** 	PORTB |= (1<<SW_1_PIN);
 646               		.loc 1 152 0
 647 0356 289A      		sbi 0x5,0
 154:main.c        ****     EXTINT_DDR &= (~EXTINT_LIS331_PIN) & (~EXTINT_LSM303_PIN);
 648               		.loc 1 154 0
 649 0358 87B1      		in r24,0x7
 650 035a 837F      		andi r24,lo8(-13)
 651 035c 87B9      		out 0x7,r24
 156:main.c        ****     I2C_DDR &= (~I2C_SCL) & (~I2C_SDA);
 652               		.loc 1 156 0
 653 035e 87B1      		in r24,0x7
 654 0360 8F7C      		andi r24,lo8(-49)
 655 0362 87B9      		out 0x7,r24
 157:main.c        ****     I2C_PORT |= I2C_SCL | I2C_SDA;
 656               		.loc 1 157 0
 657 0364 88B1      		in r24,0x8
 658 0366 8063      		ori r24,lo8(48)
 659 0368 88B9      		out 0x8,r24
 158:main.c        ****     i2cReset(); 
 660               		.loc 1 158 0
 661 036a 0E94 0000 		call i2cReset
 662               	.LVL61:
 159:main.c        ****     i2cSetBitrate(400);
 663               		.loc 1 159 0
 664 036e 80E9      		ldi r24,lo8(-112)
 665 0370 91E0      		ldi r25,lo8(1)
 666 0372 0E94 0000 		call i2cSetBitrate
 667               	.LVL62:
 160:main.c        ****     enumerateI2C();
 668               		.loc 1 160 0
 669 0376 0E94 0000 		call enumerateI2C
 670               	.LVL63:
 162:main.c        ****     bmp280_init();
 671               		.loc 1 162 0
GAS LISTING /var/folders/7l/9pmsqbq54pd4f14gcz60xhbh0000gn/T//ccqTWAch.s 			page 23


 672 037a 0E94 0000 		call bmp280_init
 673               	.LVL64:
 163:main.c        ****     lis331_init();
 674               		.loc 1 163 0
 675 037e 0E94 0000 		call lis331_init
 676               	.LVL65:
 164:main.c        ****     lsm303_init();
 677               		.loc 1 164 0
 678 0382 0E94 0000 		call lsm303_init
 679               	.LVL66:
 166:main.c        ****     bufferInit(&g_stream, g_stream_buff, TOTAL_BUFF_LEN);
 680               		.loc 1 166 0
 681 0386 48E5      		ldi r20,lo8(88)
 682 0388 52E0      		ldi r21,lo8(2)
 683 038a 60E0      		ldi r22,lo8(g_stream_buff)
 684 038c 70E0      		ldi r23,hi8(g_stream_buff)
 685 038e 80E0      		ldi r24,lo8(g_stream)
 686 0390 90E0      		ldi r25,hi8(g_stream)
 687 0392 0E94 0000 		call bufferInit
 688               	.LVL67:
 168:main.c        ****     sei();       // THis already happens in swTimer_init() but jsut in case....
 689               		.loc 1 168 0
 690               	/* #APP */
 691               	 ;  168 "main.c" 1
 692 0396 7894      		sei
 693               	 ;  0 "" 2
 170:main.c        ****     wdt_enable(WDTO_1S);
 694               		.loc 1 170 0
 695               	/* #NOAPP */
 696 0398 2EE0      		ldi r18,lo8(14)
 697 039a 88E1      		ldi r24,lo8(24)
 698 039c 90E0      		ldi r25,0
 699               	/* #APP */
 700               	 ;  170 "main.c" 1
 701 039e 0FB6      		in __tmp_reg__,__SREG__
 702 03a0 F894      		cli
 703 03a2 A895      		wdr
 704 03a4 8093 6000 		sts 96,r24
 705 03a8 0FBE      		out __SREG__,__tmp_reg__
 706 03aa 2093 6000 		sts 96,r18
 707               		
 708               	 ;  0 "" 2
 172:main.c        **** 	swTimer_set(&led_timer, 100);
 709               		.loc 1 172 0
 710               	/* #NOAPP */
 711 03ae 44E6      		ldi r20,lo8(100)
 712 03b0 50E0      		ldi r21,0
 713 03b2 60E0      		ldi r22,0
 714 03b4 70E0      		ldi r23,0
 715 03b6 80E0      		ldi r24,lo8(led_timer)
 716 03b8 90E0      		ldi r25,hi8(led_timer)
 717 03ba 0E94 0000 		call swTimer_set
 718               	.LVL68:
 173:main.c        **** 	swTimer_start(&led_timer);
 719               		.loc 1 173 0
 720 03be 80E0      		ldi r24,lo8(led_timer)
 721 03c0 90E0      		ldi r25,hi8(led_timer)
GAS LISTING /var/folders/7l/9pmsqbq54pd4f14gcz60xhbh0000gn/T//ccqTWAch.s 			page 24


 722 03c2 0E94 0000 		call swTimer_start
 723               	.LVL69:
 175:main.c        ****     swTimer_set(&bmp280_timer, 2);
 724               		.loc 1 175 0
 725 03c6 42E0      		ldi r20,lo8(2)
 726 03c8 50E0      		ldi r21,0
 727 03ca 60E0      		ldi r22,0
 728 03cc 70E0      		ldi r23,0
 729 03ce 80E0      		ldi r24,lo8(bmp280_timer)
 730 03d0 90E0      		ldi r25,hi8(bmp280_timer)
 731 03d2 0E94 0000 		call swTimer_set
 732               	.LVL70:
 176:main.c        ****     swTimer_start(&bmp280_timer);
 733               		.loc 1 176 0
 734 03d6 80E0      		ldi r24,lo8(bmp280_timer)
 735 03d8 90E0      		ldi r25,hi8(bmp280_timer)
 736 03da 0C94 0000 		jmp swTimer_start
 737               	.LVL71:
 738               		.cfi_endproc
 739               	.LFE9:
 740               		.size	init, .-init
 741               	.global	check_events
 742               		.type	check_events, @function
 743               	check_events:
 744               	.LFB14:
 283:main.c        **** 
 284:main.c        **** event_t check_events(void)
 285:main.c        **** {
 745               		.loc 1 285 0
 746               		.cfi_startproc
 747               	/* prologue: function */
 748               	/* frame size = 0 */
 749               	/* stack size = 0 */
 750               	.L__stack_usage = 0
 286:main.c        **** 	static uint8_t PIND_state = 0xff;
 287:main.c        **** 	static uint8_t PINB_state = 0xff;
 288:main.c        **** 	
 289:main.c        **** 	if(! (PINB & (1<<SW_1_PIN)))
 751               		.loc 1 289 0
 752 03de 1899      		sbic 0x3,0
 753 03e0 00C0      		rjmp .L49
 290:main.c        **** 	{
 291:main.c        **** 		if(PINB_state & (1<<SW_1_PIN))
 754               		.loc 1 291 0
 755 03e2 8091 0000 		lds r24,PINB_state.2096
 756 03e6 80FF      		sbrs r24,0
 757 03e8 00C0      		rjmp .L49
 292:main.c        **** 		{
 293:main.c        **** 			PINB_state = PINB;
 758               		.loc 1 293 0
 759 03ea 83B1      		in r24,0x3
 760 03ec 8093 0000 		sts PINB_state.2096,r24
 294:main.c        **** 			return SW_1_press;
 761               		.loc 1 294 0
 762 03f0 81E0      		ldi r24,lo8(1)
 763 03f2 90E0      		ldi r25,0
 764 03f4 0895      		ret
GAS LISTING /var/folders/7l/9pmsqbq54pd4f14gcz60xhbh0000gn/T//ccqTWAch.s 			page 25


 765               	.L49:
 295:main.c        **** 		}
 296:main.c        **** 	}
 297:main.c        **** 	
 298:main.c        **** 	if(! (PIND & (1<<SW_2_PIN)))
 766               		.loc 1 298 0
 767 03f6 4F99      		sbic 0x9,7
 768 03f8 00C0      		rjmp .L51
 299:main.c        **** 	{
 300:main.c        **** 		if(PIND_state & (1<<SW_2_PIN))
 769               		.loc 1 300 0
 770 03fa 8091 0000 		lds r24,PIND_state.2095
 771 03fe 87FF      		sbrs r24,7
 772 0400 00C0      		rjmp .L51
 301:main.c        **** 		{
 302:main.c        **** 			PIND_state = PIND;
 773               		.loc 1 302 0
 774 0402 89B1      		in r24,0x9
 775 0404 8093 0000 		sts PIND_state.2095,r24
 303:main.c        **** 			return SW_2_press;
 776               		.loc 1 303 0
 777 0408 82E0      		ldi r24,lo8(2)
 778 040a 90E0      		ldi r25,0
 779 040c 0895      		ret
 780               	.L51:
 304:main.c        **** 		}
 305:main.c        **** 	}
 306:main.c        **** 	PINB_state = PINB;
 781               		.loc 1 306 0
 782 040e 83B1      		in r24,0x3
 783 0410 8093 0000 		sts PINB_state.2096,r24
 307:main.c        **** 	PIND_state = PIND;
 784               		.loc 1 307 0
 785 0414 89B1      		in r24,0x9
 786 0416 8093 0000 		sts PIND_state.2095,r24
 308:main.c        **** 	return no_event;
 787               		.loc 1 308 0
 788 041a 80E0      		ldi r24,0
 789 041c 90E0      		ldi r25,0
 309:main.c        **** }
 790               		.loc 1 309 0
 791 041e 0895      		ret
 792               		.cfi_endproc
 793               	.LFE14:
 794               		.size	check_events, .-check_events
 795               	.global	jump_to_bootloader
 796               		.type	jump_to_bootloader, @function
 797               	jump_to_bootloader:
 798               	.LFB15:
 310:main.c        **** 
 311:main.c        **** void jump_to_bootloader(void)
 312:main.c        **** {
 799               		.loc 1 312 0
 800               		.cfi_startproc
 801               	/* prologue: function */
 802               	/* frame size = 0 */
 803               	/* stack size = 0 */
GAS LISTING /var/folders/7l/9pmsqbq54pd4f14gcz60xhbh0000gn/T//ccqTWAch.s 			page 26


 804               	.L__stack_usage = 0
 313:main.c        ****     cli();
 805               		.loc 1 313 0
 806               	/* #APP */
 807               	 ;  313 "main.c" 1
 808 0420 F894      		cli
 809               	 ;  0 "" 2
 314:main.c        ****     // This makes custom USBasploader come up.
 315:main.c        ****     MCUSR = 0;
 810               		.loc 1 315 0
 811               	/* #NOAPP */
 812 0422 14BE      		out 0x34,__zero_reg__
 316:main.c        **** 
 317:main.c        ****     // ATmega168PA
 318:main.c        ****     // initialize ports
 319:main.c        ****     PORTB = 0; PORTC= 0; PORTD = 0;
 813               		.loc 1 319 0
 814 0424 15B8      		out 0x5,__zero_reg__
 815 0426 18B8      		out 0x8,__zero_reg__
 816 0428 1BB8      		out 0xb,__zero_reg__
 320:main.c        ****     DDRB = 0; DDRC= 0; DDRD = 0;
 817               		.loc 1 320 0
 818 042a 14B8      		out 0x4,__zero_reg__
 819 042c 17B8      		out 0x7,__zero_reg__
 820 042e 1AB8      		out 0xa,__zero_reg__
 321:main.c        **** 
 322:main.c        ****     // disable interrupts
 323:main.c        ****     EIMSK = 0; EECR = 0; SPCR = 0;
 821               		.loc 1 323 0
 822 0430 1DBA      		out 0x1d,__zero_reg__
 823 0432 1FBA      		out 0x1f,__zero_reg__
 824 0434 1CBC      		out 0x2c,__zero_reg__
 324:main.c        ****     ACSR = 0; SPMCSR = 0; WDTCSR = 0; PCICR = 0;
 825               		.loc 1 324 0
 826 0436 10BE      		out 0x30,__zero_reg__
 827 0438 17BE      		out 0x37,__zero_reg__
 828 043a 1092 6000 		sts 96,__zero_reg__
 829 043e 1092 6800 		sts 104,__zero_reg__
 325:main.c        ****     TIMSK0 = 0; TIMSK1 = 0; TIMSK2 = 0;
 830               		.loc 1 325 0
 831 0442 1092 6E00 		sts 110,__zero_reg__
 832 0446 1092 6F00 		sts 111,__zero_reg__
 833 044a 1092 7000 		sts 112,__zero_reg__
 326:main.c        ****     ADCSRA = 0; TWCR = 0; UCSR0B = 0;
 834               		.loc 1 326 0
 835 044e 1092 7A00 		sts 122,__zero_reg__
 836 0452 1092 BC00 		sts 188,__zero_reg__
 837 0456 1092 C100 		sts 193,__zero_reg__
 327:main.c        **** 
 328:main.c        ****     // Boot Loader Section Start Address:
 329:main.c        ****     // BOOTSZ       Size        Address
 330:main.c        ****     // (lock bit)   (word)      (word)      (byte)
 331:main.c        ****     // '11'         128         0x1F80      0x3F00
 332:main.c        ****     // '10'         256         0x1F00      0x3E00
 333:main.c        ****     // '01'         512         0x1E00      0x3C00
 334:main.c        ****     // '00'         1024        0x1C00      0x3800
 335:main.c        ****     asm volatile("jmp 0x3800");
GAS LISTING /var/folders/7l/9pmsqbq54pd4f14gcz60xhbh0000gn/T//ccqTWAch.s 			page 27


 838               		.loc 1 335 0
 839               	/* #APP */
 840               	 ;  335 "main.c" 1
 841 045a 0C94 001C 		jmp 0x3800
 842               	 ;  0 "" 2
 843               	/* #NOAPP */
 844 045e 0895      		ret
 845               		.cfi_endproc
 846               	.LFE15:
 847               		.size	jump_to_bootloader, .-jump_to_bootloader
 848               		.section	.text.startup,"ax",@progbits
 849               	.global	main
 850               		.type	main, @function
 851               	main:
 852               	.LFB7:
  75:main.c        **** {
 853               		.loc 1 75 0
 854               		.cfi_startproc
 855               	/* prologue: function */
 856               	/* frame size = 0 */
 857               	/* stack size = 0 */
 858               	.L__stack_usage = 0
  77:main.c        **** 	init();
 859               		.loc 1 77 0
 860 0000 0E94 0000 		call init
 861               	.LVL72:
  87:main.c        ****                     TOGGLE_LED(1<<LED_GREEN_PIN);
 862               		.loc 1 87 0
 863 0004 C0E2      		ldi r28,lo8(32)
 864               	.L57:
  80:main.c        **** 		while((ev = check_events()))
 865               		.loc 1 80 0 discriminator 1
 866 0006 0E94 0000 		call check_events
 867               	.LVL73:
 868 000a 0097      		sbiw r24,0
 869 000c 01F0      		breq .L62
  82:main.c        **** 			switch(ev)
 870               		.loc 1 82 0
 871 000e 8130      		cpi r24,1
 872 0010 9105      		cpc r25,__zero_reg__
 873 0012 01F0      		breq .L59
 874 0014 0297      		sbiw r24,2
 875 0016 01F4      		brne .L57
  90:main.c        **** 					jump_to_bootloader();
 876               		.loc 1 90 0
 877 0018 0E94 0000 		call jump_to_bootloader
 878               	.LVL74:
  91:main.c        **** 					break;
 879               		.loc 1 91 0
 880 001c 00C0      		rjmp .L57
 881               	.LVL75:
 882               	.L59:
  87:main.c        ****                     TOGGLE_LED(1<<LED_GREEN_PIN);
 883               		.loc 1 87 0
 884 001e 9BB1      		in r25,0xb
 885 0020 8BB1      		in r24,0xb
 886               	.LVL76:
GAS LISTING /var/folders/7l/9pmsqbq54pd4f14gcz60xhbh0000gn/T//ccqTWAch.s 			page 28


 887 0022 8C27      		eor r24,r28
 888 0024 9F7D      		andi r25,lo8(-33)
 889 0026 892B      		or r24,r25
 890 0028 8BB9      		out 0xb,r24
  88:main.c        **** 					break;
 891               		.loc 1 88 0
 892 002a 00C0      		rjmp .L57
 893               	.LVL77:
 894               	.L62:
  96:main.c        ****         wdt_reset();
 895               		.loc 1 96 0
 896               	/* #APP */
 897               	 ;  96 "main.c" 1
 898 002c A895      		wdr
 899               	 ;  0 "" 2
  97:main.c        ****         usbPoll();
 900               		.loc 1 97 0
 901               	/* #NOAPP */
 902 002e 0E94 0000 		call usbPoll
 903               	.LVL78:
  98:main.c        **** 		idle_task();
 904               		.loc 1 98 0
 905 0032 0E94 0000 		call idle_task
 906               	.LVL79:
  99:main.c        **** 	}
 907               		.loc 1 99 0
 908 0036 00C0      		rjmp .L57
 909               		.cfi_endproc
 910               	.LFE7:
 911               		.size	main, .-main
 912               		.data
 913               		.type	PIND_state.2095, @object
 914               		.size	PIND_state.2095, 1
 915               	PIND_state.2095:
 916 0000 FF        		.byte	-1
 917               		.type	PINB_state.2096, @object
 918               		.size	PINB_state.2096, 1
 919               	PINB_state.2096:
 920 0001 FF        		.byte	-1
 921               		.local	z.2069
 922               		.comm	z.2069,2,1
 923               		.local	y.2068
 924               		.comm	y.2068,2,1
 925               		.local	x.2067
 926               		.comm	x.2067,2,1
 927               		.local	z2.2072
 928               		.comm	z2.2072,2,1
 929               		.local	y2.2071
 930               		.comm	y2.2071,2,1
 931               		.local	x2.2070
 932               		.comm	x2.2070,2,1
 933               		.local	zfilt.2078
 934               		.comm	zfilt.2078,35,1
 935               		.local	yfilt.2077
 936               		.comm	yfilt.2077,35,1
 937               		.local	xfilt.2076
 938               		.comm	xfilt.2076,35,1
GAS LISTING /var/folders/7l/9pmsqbq54pd4f14gcz60xhbh0000gn/T//ccqTWAch.s 			page 29


 939               		.local	mz.2075
 940               		.comm	mz.2075,2,1
 941               		.local	my.2074
 942               		.comm	my.2074,2,1
 943               		.local	mx.2073
 944               		.comm	mx.2073,2,1
 945               		.local	P.2066
 946               		.comm	P.2066,4,1
 947               		.local	T.2065
 948               		.comm	T.2065,4,1
 949               		.local	time.2079
 950               		.comm	time.2079,4,1
 951               		.local	temp.2049
 952               		.comm	temp.2049,2,1
 953               		.local	i.2048
 954               		.comm	i.2048,1,1
 955               		.local	dataBuffer.2047
 956               		.comm	dataBuffer.2047,600,1
 957               		.comm	g_i2c_dev_addrs,4,1
 958               		.comm	g_stream_buff,600,1
 959               		.comm	g_stream,8,1
 960               		.comm	bmp280_timer,10,1
 961               		.comm	led_timer,10,1
 962               		.comm	g_i2c_dev_idx,1,1
 963               		.comm	seq_ind,1,1
 964               	.global	sequence
 965               		.type	sequence, @object
 966               		.size	sequence, 6
 967               	sequence:
 968 0002 EF        		.byte	-17
 969 0003 0A        		.byte	10
 970 0004 BF        		.byte	-65
 971 0005 0A        		.byte	10
 972 0006 70        		.byte	112
 973 0007 64        		.byte	100
 974               		.comm	g_buff,16,1
 975               		.text
 976               	.Letext0:
 977               		.file 3 "/usr/local/CrossPack-AVR-20131216/avr/include/stdint.h"
 978               		.file 4 "../../../dev/avrlib/avrlibtypes.h"
 979               		.file 5 "../../../dev/avrlib/swTimer.h"
 980               		.file 6 "usbdrv/usbdrv.h"
 981               		.file 7 "../../../dev/avrlib/avrlib/buffer.h"
 982               		.file 8 "./i2cconf.h"
 983               		.file 9 "bmp280.h"
 984               		.file 10 "lsm303d.h"
 985               		.file 11 "serialize.h"
 986               		.file 12 "lis331.h"
 987               		.file 13 "../../../dev/avrlib/avrlib/i2c.h"